
a.out:     file format elf32-sparc

Disassembly of section .text:

0000000000010074 <_start>:
   10074:	bc 10 20 00 	clr  %fp
   10078:	e0 03 a0 40 	ld  [ %sp + 0x40 ], %l0
   1007c:	a2 03 a0 44 	add  %sp, 0x44, %l1
   10080:	13 00 00 9c 	sethi  %hi(0x27000), %o1
   10084:	e2 22 62 bc 	st  %l1, [ %o1 + 0x2bc ]	! 272bc <___Argv>
   10088:	a5 2c 20 02 	sll  %l0, 2, %l2
   1008c:	a4 04 a0 04 	add  %l2, 4, %l2
   10090:	a4 04 40 12 	add  %l1, %l2, %l2
   10094:	27 00 00 9c 	sethi  %hi(0x27000), %l3
   10098:	e4 24 e2 98 	st  %l2, [ %l3 + 0x298 ]	! 27298 <_environ>
   1009c:	2b 00 00 00 	sethi  %hi(0), %l5
   100a0:	aa 15 60 00 	mov  %l5, %l5	! 0 <_ld_libc>
   100a4:	80 90 00 15 	tst  %l5
   100a8:	02 80 00 1b 	be  10114 <_start+0xa0>
   100ac:	01 00 00 00 	nop 
   100b0:	ad 2d 60 02 	sll  %l5, 2, %l6
   100b4:	ae 0d a3 00 	and  %l6, 0x300, %l7
   100b8:	ac 0d 60 3f 	and  %l5, 0x3f, %l6
   100bc:	ae 15 80 17 	or  %l6, %l7, %l7
   100c0:	ab 2d e0 16 	sll  %l7, 0x16, %l5
   100c4:	29 00 00 9c 	sethi  %hi(0x27000), %l4
   100c8:	a8 15 22 b4 	or  %l4, 0x2b4, %l4	! 272b4 <__crt_scratch>
   100cc:	c1 2d 00 00 	st  %fsr, [ %l4 ]
   100d0:	ec 05 00 00 	ld  [ %l4 ], %l6
   100d4:	2f 0c 0f ff 	sethi  %hi(0x303ffc00), %l7
   100d8:	ae 15 e3 ff 	or  %l7, 0x3ff, %l7	! 303fffff <_end+0x303d816b>
   100dc:	ac 0d 80 17 	and  %l6, %l7, %l6
   100e0:	ac 15 80 15 	or  %l6, %l5, %l6
   100e4:	ec 25 00 00 	st  %l6, [ %l4 ]
   100e8:	c1 0d 00 00 	ld  [ %l4 ], %fsr
   100ec:	2b 00 00 00 	sethi  %hi(0), %l5
   100f0:	aa 15 60 00 	mov  %l5, %l5	! 0 <_ld_libc>
   100f4:	aa 0d 60 3f 	and  %l5, 0x3f, %l5
   100f8:	80 a5 60 35 	cmp  %l5, 0x35
   100fc:	12 80 00 06 	bne  10114 <_start+0xa0>
   10100:	01 00 00 00 	nop 
   10104:	2b 00 00 9c 	sethi  %hi(0x27000), %l5
   10108:	aa 15 62 b8 	or  %l5, 0x2b8, %l5	! 272b8 <__cg89_used>
   1010c:	a8 10 20 01 	mov  1, %l4
   10110:	e8 25 40 00 	st  %l4, [ %l5 ]
   10114:	9c 23 a0 20 	sub  %sp, 0x20, %sp
   10118:	80 90 00 01 	tst  %g1
   1011c:	02 80 00 04 	be  1012c <_start+0xb8>
   10120:	90 10 00 01 	mov  %g1, %o0
   10124:	40 00 00 2d 	call  101d8 <atexit>
   10128:	01 00 00 00 	nop 
   1012c:	11 00 00 5c 	sethi  %hi(0x17000), %o0
   10130:	40 00 00 2a 	call  101d8 <atexit>
   10134:	90 12 21 c8 	or  %o0, 0x1c8, %o0	! 171c8 <_fini>
   10138:	40 00 1c 14 	call  17188 <_ex_text1>
   1013c:	01 00 00 00 	nop 
   10140:	90 10 00 10 	mov  %l0, %o0
   10144:	92 10 00 11 	mov  %l1, %o1
   10148:	94 10 00 12 	mov  %l2, %o2
   1014c:	96 10 00 13 	mov  %l3, %o3
   10150:	40 00 00 06 	call  10168 <main>
   10154:	01 00 00 00 	nop 
   10158:	40 00 16 c2 	call  15c60 <exit>
   1015c:	01 00 00 00 	nop 
   10160:	40 00 01 75 	call  10734 <_exit>
   10164:	01 00 00 00 	nop 

0000000000010168 <main>:
   10168:	9d e3 bf a0 	save  %sp, -96, %sp
   1016c:	90 10 20 02 	mov  2, %o0
   10170:	13 00 00 5c 	sethi  %hi(0x17000), %o1
   10174:	92 12 62 08 	or  %o1, 0x208, %o1	! 17208 <_lib_version+0x4>
   10178:	94 10 20 0c 	mov  0xc, %o2
   1017c:	40 00 02 f1 	call  10d40 <write>
   10180:	01 00 00 00 	nop 
   10184:	b0 10 00 00 	mov  %g0, %i0
   10188:	81 c7 e0 08 	ret 
   1018c:	81 e8 00 00 	restore 

0000000000010190 <_atexit_init>:
   10190:	9d e3 bf 88 	save  %sp, -120, %sp
   10194:	90 10 20 01 	mov  1, %o0
   10198:	d0 27 bf e8 	st  %o0, [ %fp + -24 ]
   1019c:	d0 27 bf ec 	st  %o0, [ %fp + -20 ]
   101a0:	90 10 20 02 	mov  2, %o0
   101a4:	d0 27 bf f0 	st  %o0, [ %fp + -16 ]
   101a8:	11 00 00 40 	sethi  %hi(0x10000), %o0
   101ac:	90 02 23 1c 	add  %o0, 0x31c, %o0	! 1031c <_preexec_exit_handlers>
   101b0:	d0 27 bf f4 	st  %o0, [ %fp + -12 ]
   101b4:	11 00 00 00 	sethi  %hi(0), %o0
   101b8:	c0 27 bf f8 	clr  [ %fp + -8 ]
   101bc:	80 82 20 00 	addcc  %o0, 0, %g0
   101c0:	02 80 00 04 	be  101d0 <_atexit_init+0x40>
   101c4:	c0 27 bf fc 	clr  [ %fp + -4 ]
   101c8:	40 00 00 00 	call  101c8 <_atexit_init+0x38>
   101cc:	90 07 bf e8 	add  %fp, -24, %o0
   101d0:	81 c7 e0 08 	ret 
   101d4:	81 e8 00 00 	restore 

00000000000101d8 <atexit>:
   101d8:	9d e3 bf a0 	save  %sp, -96, %sp
   101dc:	40 00 00 a6 	call  10474 <get_mem>
   101e0:	b2 10 00 18 	mov  %i0, %i1
   101e4:	80 a2 3f ff 	cmp  %o0, -1
   101e8:	12 80 00 04 	bne  101f8 <atexit+0x20>
   101ec:	b0 10 00 08 	mov  %o0, %i0
   101f0:	81 c7 e0 08 	ret 
   101f4:	91 e8 3f ff 	restore  %g0, -1, %o0
   101f8:	91 2a 20 02 	sll  %o0, 2, %o0
   101fc:	23 00 00 9c 	sethi  %hi(0x27000), %l1
   10200:	90 22 00 18 	sub  %o0, %i0, %o0
   10204:	a1 2a 20 02 	sll  %o0, 2, %l0
   10208:	d0 04 62 c4 	ld  [ %l1 + 0x2c4 ], %o0
   1020c:	d0 02 20 00 	ld  [ %o0 ], %o0
   10210:	90 02 00 10 	add  %o0, %l0, %o0
   10214:	f2 22 20 04 	st  %i1, [ %o0 + 4 ]
   10218:	11 00 00 9c 	sethi  %hi(0x27000), %o0
   1021c:	a4 02 22 e8 	add  %o0, 0x2e8, %l2	! 272e8 <exitfns_lock>
   10220:	40 00 01 8d 	call  10854 <_mutex_lock>
   10224:	90 10 00 12 	mov  %l2, %o0
   10228:	e2 04 62 c4 	ld  [ %l1 + 0x2c4 ], %l1
   1022c:	11 00 00 9c 	sethi  %hi(0x27000), %o0
   10230:	d2 02 22 e0 	ld  [ %o0 + 0x2e0 ], %o1	! 272e0 <head>
   10234:	e2 04 60 00 	ld  [ %l1 ], %l1
   10238:	f0 22 22 e0 	st  %i0, [ %o0 + 0x2e0 ]
   1023c:	d2 24 00 11 	st  %o1, [ %l0 + %l1 ]
   10240:	40 00 01 8a 	call  10868 <_mutex_unlock>
   10244:	90 10 00 12 	mov  %l2, %o0
   10248:	81 c7 e0 08 	ret 
   1024c:	91 e8 20 00 	restore  %g0, 0, %o0

0000000000010250 <_exithandle>:
   10250:	9d e3 bf a0 	save  %sp, -96, %sp
   10254:	11 00 00 9c 	sethi  %hi(0x27000), %o0
   10258:	b0 02 23 00 	add  %o0, 0x300, %i0	! 27300 <exithandler_once_lock>
   1025c:	40 00 01 7e 	call  10854 <_mutex_lock>
   10260:	90 10 00 18 	mov  %i0, %o0
   10264:	13 00 00 9e 	sethi  %hi(0x27800), %o1
   10268:	d0 02 63 a8 	ld  [ %o1 + 0x3a8 ], %o0	! 27ba8 <exithandler_once>
   1026c:	80 a2 20 00 	cmp  %o0, 0
   10270:	12 80 00 26 	bne  10308 <_exithandle+0xb8>
   10274:	90 10 20 01 	mov  1, %o0
   10278:	d0 22 63 a8 	st  %o0, [ %o1 + 0x3a8 ]
   1027c:	40 00 01 7b 	call  10868 <_mutex_unlock>
   10280:	90 10 00 18 	mov  %i0, %o0
   10284:	40 00 01 74 	call  10854 <_mutex_lock>
   10288:	90 06 3f e8 	add  %i0, -24, %o0
   1028c:	f2 06 3f e0 	ld  [ %i0 + -32 ], %i1
   10290:	80 a6 7f ff 	cmp  %i1, -1
   10294:	02 80 00 19 	be  102f8 <_exithandle+0xa8>
   10298:	91 2e 60 02 	sll  %i1, 2, %o0
   1029c:	90 22 00 19 	sub  %o0, %i1, %o0
   102a0:	a2 06 3f e8 	add  %i0, -24, %l1
   102a4:	a1 2a 20 02 	sll  %o0, 2, %l0
   102a8:	d0 06 3f c4 	ld  [ %i0 + -60 ], %o0
   102ac:	d0 02 20 00 	ld  [ %o0 ], %o0
   102b0:	d0 04 00 08 	ld  [ %l0 + %o0 ], %o0
   102b4:	d0 26 3f e0 	st  %o0, [ %i0 + -32 ]
   102b8:	40 00 01 6c 	call  10868 <_mutex_unlock>
   102bc:	90 10 00 11 	mov  %l1, %o0
   102c0:	d0 06 3f c4 	ld  [ %i0 + -60 ], %o0
   102c4:	d0 02 20 00 	ld  [ %o0 ], %o0
   102c8:	90 02 00 10 	add  %o0, %l0, %o0
   102cc:	e0 02 20 04 	ld  [ %o0 + 4 ], %l0
   102d0:	9f c4 00 00 	call  %l0
   102d4:	01 00 00 00 	nop 
   102d8:	40 00 00 ef 	call  10694 <free_mem>
   102dc:	90 10 00 19 	mov  %i1, %o0
   102e0:	40 00 01 5d 	call  10854 <_mutex_lock>
   102e4:	90 10 00 11 	mov  %l1, %o0
   102e8:	f2 06 3f e0 	ld  [ %i0 + -32 ], %i1
   102ec:	80 a6 7f ff 	cmp  %i1, -1
   102f0:	12 bf ff eb 	bne  1029c <_exithandle+0x4c>
   102f4:	91 2e 60 02 	sll  %i1, 2, %o0
   102f8:	90 10 3f ff 	mov  -1, %o0
   102fc:	d0 26 3f e0 	st  %o0, [ %i0 + -32 ]
   10300:	40 00 01 5a 	call  10868 <_mutex_unlock>
   10304:	91 ee 3f e8 	restore  %i0, -24, %o0
   10308:	40 00 01 58 	call  10868 <_mutex_unlock>
   1030c:	81 e8 00 00 	restore 

0000000000010310 <_get_exit_frame_monitor>:
   10310:	03 00 00 9c 	sethi  %hi(0x27000), %g1
   10314:	81 c3 e0 08 	retl 
   10318:	90 00 63 18 	add  %g1, 0x318, %o0	! 27318 <__exit_frame_monitor>

000000000001031c <_preexec_exit_handlers>:
   1031c:	9d e3 bf a0 	save  %sp, -96, %sp
   10320:	11 00 00 9c 	sethi  %hi(0x27000), %o0
   10324:	b8 10 00 19 	mov  %i1, %i4
   10328:	b2 02 22 e0 	add  %o0, 0x2e0, %i1
   1032c:	ba 10 00 18 	mov  %i0, %i5
   10330:	40 00 01 49 	call  10854 <_mutex_lock>
   10334:	90 06 60 08 	add  %i1, 8, %o0
   10338:	f6 06 60 00 	ld  [ %i1 ], %i3
   1033c:	b4 10 3f ff 	mov  -1, %i2
   10340:	d2 06 7f e4 	ld  [ %i1 + -28 ], %o1
   10344:	80 a6 ff ff 	cmp  %i3, -1
   10348:	02 80 00 31 	be  1040c <_preexec_exit_handlers+0xf0>
   1034c:	91 2e e0 02 	sll  %i3, 2, %o0
   10350:	90 22 00 1b 	sub  %o0, %i3, %o0
   10354:	b1 2a 20 02 	sll  %o0, 2, %i0
   10358:	d0 02 60 00 	ld  [ %o1 ], %o0
   1035c:	92 10 00 1d 	mov  %i5, %o1
   10360:	90 02 00 18 	add  %o0, %i0, %o0
   10364:	d0 02 20 04 	ld  [ %o0 + 4 ], %o0
   10368:	40 00 00 2d 	call  1041c <in_range>
   1036c:	94 10 00 1c 	mov  %i4, %o2
   10370:	80 90 00 08 	tst  %o0
   10374:	02 80 00 20 	be  103f4 <_preexec_exit_handlers+0xd8>
   10378:	d0 06 7f e4 	ld  [ %i1 + -28 ], %o0
   1037c:	80 a6 bf ff 	cmp  %i2, -1
   10380:	02 80 00 09 	be  103a4 <_preexec_exit_handlers+0x88>
   10384:	d0 02 20 00 	ld  [ %o0 ], %o0
   10388:	93 2e a0 02 	sll  %i2, 2, %o1
   1038c:	92 22 40 1a 	sub  %o1, %i2, %o1
   10390:	d4 06 00 08 	ld  [ %i0 + %o0 ], %o2
   10394:	93 2a 60 02 	sll  %o1, 2, %o1
   10398:	d4 22 00 09 	st  %o2, [ %o0 + %o1 ]
   1039c:	10 80 00 05 	b  103b0 <_preexec_exit_handlers+0x94>
   103a0:	a0 06 60 08 	add  %i1, 8, %l0
   103a4:	d0 06 00 08 	ld  [ %i0 + %o0 ], %o0
   103a8:	a0 06 60 08 	add  %i1, 8, %l0
   103ac:	d0 26 60 00 	st  %o0, [ %i1 ]
   103b0:	40 00 01 2e 	call  10868 <_mutex_unlock>
   103b4:	90 10 00 10 	mov  %l0, %o0
   103b8:	d0 06 7f e4 	ld  [ %i1 + -28 ], %o0
   103bc:	b4 10 3f ff 	mov  -1, %i2
   103c0:	d0 02 20 00 	ld  [ %o0 ], %o0
   103c4:	90 02 00 18 	add  %o0, %i0, %o0
   103c8:	e2 02 20 04 	ld  [ %o0 + 4 ], %l1
   103cc:	9f c4 40 00 	call  %l1
   103d0:	01 00 00 00 	nop 
   103d4:	40 00 00 b0 	call  10694 <free_mem>
   103d8:	90 10 00 1b 	mov  %i3, %o0
   103dc:	40 00 01 1e 	call  10854 <_mutex_lock>
   103e0:	90 10 00 10 	mov  %l0, %o0
   103e4:	f6 06 60 00 	ld  [ %i1 ], %i3
   103e8:	d2 06 7f e4 	ld  [ %i1 + -28 ], %o1
   103ec:	10 bf ff d7 	b  10348 <_preexec_exit_handlers+0x2c>
   103f0:	80 a6 ff ff 	cmp  %i3, -1
   103f4:	92 10 00 08 	mov  %o0, %o1
   103f8:	d0 02 20 00 	ld  [ %o0 ], %o0
   103fc:	b4 10 00 1b 	mov  %i3, %i2
   10400:	f6 06 00 08 	ld  [ %i0 + %o0 ], %i3
   10404:	10 bf ff d1 	b  10348 <_preexec_exit_handlers+0x2c>
   10408:	80 a6 ff ff 	cmp  %i3, -1
   1040c:	40 00 01 17 	call  10868 <_mutex_unlock>
   10410:	90 06 60 08 	add  %i1, 8, %o0
   10414:	81 c7 e0 08 	ret 
   10418:	91 e8 20 00 	restore  %g0, 0, %o0

000000000001041c <in_range>:
   1041c:	98 90 00 0a 	orcc  %g0, %o2, %o4
   10420:	08 80 00 12 	bleu  10468 <in_range+0x4c>
   10424:	9a 10 00 09 	mov  %o1, %o5
   10428:	d4 03 60 00 	ld  [ %o5 ], %o2
   1042c:	82 10 20 00 	clr  %g1
   10430:	80 a2 00 0a 	cmp  %o0, %o2
   10434:	2a 80 00 09 	bcs,a   10458 <in_range+0x3c>
   10438:	9a 03 60 08 	add  %o5, 8, %o5
   1043c:	d4 03 60 04 	ld  [ %o5 + 4 ], %o2
   10440:	80 a2 00 0a 	cmp  %o0, %o2
   10444:	18 80 00 05 	bgu  10458 <in_range+0x3c>
   10448:	9a 03 60 08 	add  %o5, 8, %o5
   1044c:	82 10 20 01 	mov  1, %g1
   10450:	81 c3 e0 08 	retl 
   10454:	90 10 00 01 	mov  %g1, %o0
   10458:	82 00 60 01 	inc  %g1
   1045c:	80 a0 40 0c 	cmp  %g1, %o4
   10460:	2a bf ff f4 	bcs,a   10430 <in_range+0x14>
   10464:	d4 03 60 00 	ld  [ %o5 ], %o2
   10468:	82 10 20 00 	clr  %g1
   1046c:	81 c3 e0 08 	retl 
   10470:	90 10 00 01 	mov  %g1, %o0

0000000000010474 <get_mem>:
   10474:	9d e3 bf a0 	save  %sp, -96, %sp
   10478:	11 00 00 9c 	sethi  %hi(0x27000), %o0
   1047c:	b2 02 22 c4 	add  %o0, 0x2c4, %i1	! 272c4 <cur_hdr>
   10480:	b4 06 60 04 	add  %i1, 4, %i2
   10484:	40 00 00 f4 	call  10854 <_mutex_lock>
   10488:	90 10 00 1a 	mov  %i2, %o0
   1048c:	d2 06 60 00 	ld  [ %i1 ], %o1
   10490:	15 00 00 9e 	sethi  %hi(0x27800), %o2
   10494:	94 02 a3 bc 	add  %o2, 0x3bc, %o2	! 27bbc <static_hdr+0x4>
   10498:	80 a2 60 00 	cmp  %o1, 0
   1049c:	12 80 00 10 	bne  104dc <get_mem+0x68>
   104a0:	03 00 00 9e 	sethi  %hi(0x27800), %g1
   104a4:	90 00 63 c4 	add  %g1, 0x3c4, %o0	! 27bc4 <static_mem>
   104a8:	13 00 00 9e 	sethi  %hi(0x27800), %o1
   104ac:	d0 22 63 b8 	st  %o0, [ %o1 + 0x3b8 ]	! 27bb8 <static_hdr>
   104b0:	92 10 20 20 	mov  0x20, %o1
   104b4:	d2 22 a0 00 	st  %o1, [ %o2 ]
   104b8:	15 00 00 9e 	sethi  %hi(0x27800), %o2
   104bc:	94 02 a3 c0 	add  %o2, 0x3c0, %o2	! 27bc0 <static_hdr+0x8>
   104c0:	d2 22 a0 00 	st  %o1, [ %o2 ]
   104c4:	40 00 00 8a 	call  106ec <mem_init>
   104c8:	92 10 20 20 	mov  0x20, %o1
   104cc:	11 00 00 9e 	sethi  %hi(0x27800), %o0
   104d0:	96 02 23 b8 	add  %o0, 0x3b8, %o3	! 27bb8 <static_hdr>
   104d4:	10 80 00 52 	b  1061c <get_mem+0x1a8>
   104d8:	b0 10 20 00 	clr  %i0
   104dc:	d0 02 60 08 	ld  [ %o1 + 8 ], %o0
   104e0:	96 10 00 09 	mov  %o1, %o3
   104e4:	03 00 00 9e 	sethi  %hi(0x27800), %g1
   104e8:	80 a2 20 00 	cmp  %o0, 0
   104ec:	12 80 00 4c 	bne  1061c <get_mem+0x1a8>
   104f0:	b0 10 20 00 	clr  %i0
   104f4:	90 00 63 b8 	add  %g1, 0x3b8, %o0
   104f8:	80 a2 40 08 	cmp  %o1, %o0
   104fc:	32 80 00 26 	bne,a   10594 <get_mem+0x120>
   10500:	d4 06 7f fc 	ld  [ %i1 + -4 ], %o2
   10504:	40 00 09 31 	call  129c8 <malloc>
   10508:	90 10 23 00 	mov  0x300, %o0
   1050c:	90 90 00 08 	orcc  %g0, %o0, %o0
   10510:	12 80 00 0a 	bne  10538 <get_mem+0xc4>
   10514:	d0 26 7f fc 	st  %o0, [ %i1 + -4 ]
   10518:	40 00 00 d4 	call  10868 <_mutex_unlock>
   1051c:	90 10 00 1a 	mov  %i2, %o0
   10520:	40 00 15 33 	call  159ec <___errno>
   10524:	01 00 00 00 	nop 
   10528:	92 10 20 0c 	mov  0xc, %o1	! c <_ld_libc+0xc>
   1052c:	d2 22 20 00 	st  %o1, [ %o0 ]
   10530:	81 c7 e0 08 	ret 
   10534:	91 e8 3f ff 	restore  %g0, -1, %o0
   10538:	03 00 00 9e 	sethi  %hi(0x27800), %g1
   1053c:	92 00 63 c4 	add  %g1, 0x3c4, %o1	! 27bc4 <static_mem>
   10540:	40 00 0d b2 	call  13c08 <_memcpy>
   10544:	94 10 21 80 	mov  0x180, %o2
   10548:	d0 06 7f fc 	ld  [ %i1 + -4 ], %o0
   1054c:	90 02 21 80 	add  %o0, 0x180, %o0
   10550:	40 00 00 67 	call  106ec <mem_init>
   10554:	92 10 20 20 	mov  0x20, %o1
   10558:	d0 06 7f fc 	ld  [ %i1 + -4 ], %o0
   1055c:	13 00 00 9e 	sethi  %hi(0x27800), %o1
   10560:	03 00 00 9e 	sethi  %hi(0x27800), %g1
   10564:	d0 22 63 ac 	st  %o0, [ %o1 + 0x3ac ]
   10568:	92 00 63 b0 	add  %g1, 0x3b0, %o1
   1056c:	90 10 20 40 	mov  0x40, %o0
   10570:	d0 22 60 00 	st  %o0, [ %o1 ]
   10574:	13 00 00 9e 	sethi  %hi(0x27800), %o1
   10578:	90 10 20 20 	mov  0x20, %o0
   1057c:	92 02 63 b4 	add  %o1, 0x3b4, %o1
   10580:	d0 22 60 00 	st  %o0, [ %o1 ]
   10584:	11 00 00 9e 	sethi  %hi(0x27800), %o0
   10588:	96 02 23 ac 	add  %o0, 0x3ac, %o3	! 27bac <dyn_hdr>
   1058c:	10 80 00 24 	b  1061c <get_mem+0x1a8>
   10590:	b0 10 20 00 	clr  %i0
   10594:	11 00 00 9e 	sethi  %hi(0x27800), %o0
   10598:	b0 02 23 b0 	add  %o0, 0x3b0, %i0	! 27bb0 <dyn_hdr+0x4>
   1059c:	d0 06 20 00 	ld  [ %i0 ], %o0
   105a0:	93 2a 20 01 	sll  %o0, 1, %o1
   105a4:	91 2a 20 03 	sll  %o0, 3, %o0
   105a8:	90 22 00 09 	sub  %o0, %o1, %o0
   105ac:	93 2a 20 02 	sll  %o0, 2, %o1
   105b0:	40 00 09 ad 	call  12c64 <realloc>
   105b4:	90 10 00 0a 	mov  %o2, %o0
   105b8:	94 90 00 08 	orcc  %g0, %o0, %o2
   105bc:	32 80 00 0b 	bne,a   105e8 <get_mem+0x174>
   105c0:	d0 26 3f fc 	st  %o0, [ %i0 + -4 ]
   105c4:	d0 26 7f fc 	st  %o0, [ %i1 + -4 ]
   105c8:	40 00 00 a8 	call  10868 <_mutex_unlock>
   105cc:	90 10 00 1a 	mov  %i2, %o0
   105d0:	40 00 15 07 	call  159ec <___errno>
   105d4:	01 00 00 00 	nop 
   105d8:	92 10 20 0c 	mov  0xc, %o1	! c <_ld_libc+0xc>
   105dc:	d2 22 20 00 	st  %o1, [ %o0 ]
   105e0:	81 c7 e0 08 	ret 
   105e4:	91 e8 3f ff 	restore  %g0, -1, %o0
   105e8:	d2 06 20 00 	ld  [ %i0 ], %o1
   105ec:	d0 26 7f fc 	st  %o0, [ %i1 + -4 ]
   105f0:	91 2a 60 02 	sll  %o1, 2, %o0
   105f4:	90 22 00 09 	sub  %o0, %o1, %o0
   105f8:	91 2a 20 02 	sll  %o0, 2, %o0
   105fc:	40 00 00 3c 	call  106ec <mem_init>
   10600:	90 02 80 08 	add  %o2, %o0, %o0
   10604:	d0 06 20 00 	ld  [ %i0 ], %o0
   10608:	d6 06 60 00 	ld  [ %i1 ], %o3
   1060c:	d0 26 20 04 	st  %o0, [ %i0 + 4 ]
   10610:	90 02 00 08 	add  %o0, %o0, %o0
   10614:	d0 26 20 00 	st  %o0, [ %i0 ]
   10618:	b0 10 20 00 	clr  %i0
   1061c:	d4 02 e0 04 	ld  [ %o3 + 4 ], %o2
   10620:	80 a2 a0 00 	cmp  %o2, 0
   10624:	24 80 00 18 	ble,a   10684 <get_mem+0x210>
   10628:	d6 26 60 00 	st  %o3, [ %i1 ]
   1062c:	d2 02 e0 00 	ld  [ %o3 ], %o1
   10630:	d0 02 60 08 	ld  [ %o1 + 8 ], %o0
   10634:	98 10 00 09 	mov  %o1, %o4
   10638:	80 a2 20 00 	cmp  %o0, 0
   1063c:	12 80 00 09 	bne  10660 <get_mem+0x1ec>
   10640:	01 00 00 00 	nop 
   10644:	b0 06 20 01 	inc  %i0
   10648:	98 03 20 0c 	add  %o4, 0xc, %o4
   1064c:	80 a6 00 0a 	cmp  %i0, %o2
   10650:	26 bf ff fa 	bl,a   10638 <get_mem+0x1c4>
   10654:	d0 03 20 08 	ld  [ %o4 + 8 ], %o0
   10658:	10 80 00 0b 	b  10684 <get_mem+0x210>
   1065c:	d6 26 60 00 	st  %o3, [ %i1 ]
   10660:	91 2e 20 02 	sll  %i0, 2, %o0
   10664:	d6 26 60 00 	st  %o3, [ %i1 ]
   10668:	90 22 00 18 	sub  %o0, %i0, %o0
   1066c:	91 2a 20 02 	sll  %o0, 2, %o0
   10670:	90 02 40 08 	add  %o1, %o0, %o0
   10674:	c0 22 20 08 	clr  [ %o0 + 8 ]
   10678:	d0 02 e0 08 	ld  [ %o3 + 8 ], %o0
   1067c:	90 22 20 01 	dec  %o0
   10680:	d0 22 e0 08 	st  %o0, [ %o3 + 8 ]
   10684:	40 00 00 79 	call  10868 <_mutex_unlock>
   10688:	90 10 00 1a 	mov  %i2, %o0
   1068c:	81 c7 e0 08 	ret 
   10690:	81 e8 00 00 	restore 

0000000000010694 <free_mem>:
   10694:	9d e3 bf a0 	save  %sp, -96, %sp
   10698:	11 00 00 9c 	sethi  %hi(0x27000), %o0
   1069c:	a0 02 22 c8 	add  %o0, 0x2c8, %l0	! 272c8 <mem_lock>
   106a0:	40 00 00 6d 	call  10854 <_mutex_lock>
   106a4:	90 10 00 10 	mov  %l0, %o0
   106a8:	11 00 00 9c 	sethi  %hi(0x27000), %o0
   106ac:	98 10 20 01 	mov  1, %o4
   106b0:	d0 02 22 c4 	ld  [ %o0 + 0x2c4 ], %o0
   106b4:	93 2e 20 02 	sll  %i0, 2, %o1
   106b8:	92 22 40 18 	sub  %o1, %i0, %o1
   106bc:	d4 02 20 00 	ld  [ %o0 ], %o2
   106c0:	93 2a 60 02 	sll  %o1, 2, %o1
   106c4:	96 02 80 09 	add  %o2, %o1, %o3
   106c8:	d8 22 e0 08 	st  %o4, [ %o3 + 8 ]
   106cc:	98 10 3f ff 	mov  -1, %o4
   106d0:	d8 22 40 0a 	st  %o4, [ %o1 + %o2 ]
   106d4:	c0 22 e0 04 	clr  [ %o3 + 4 ]
   106d8:	d2 02 20 08 	ld  [ %o0 + 8 ], %o1
   106dc:	92 02 60 01 	inc  %o1
   106e0:	d2 22 20 08 	st  %o1, [ %o0 + 8 ]
   106e4:	40 00 00 61 	call  10868 <_mutex_unlock>
   106e8:	91 e8 00 10 	restore  %g0, %l0, %o0

00000000000106ec <mem_init>:
   106ec:	96 a2 60 01 	subcc  %o1, 1, %o3
   106f0:	98 10 20 01 	mov  1, %o4
   106f4:	0c 80 00 0e 	bneg  1072c <mem_init+0x40>
   106f8:	01 00 00 00 	nop 
   106fc:	9a 10 3f ff 	mov  -1, %o5	! ffffffffffffffff <_end+0xfffffffffffd816b>
   10700:	83 2a e0 02 	sll  %o3, 2, %g1
   10704:	82 20 40 0b 	sub  %g1, %o3, %g1
   10708:	83 28 60 02 	sll  %g1, 2, %g1
   1070c:	94 02 00 01 	add  %o0, %g1, %o2
   10710:	c0 22 a0 04 	clr  [ %o2 + 4 ]
   10714:	da 22 a0 00 	st  %o5, [ %o2 ]
   10718:	96 a2 e0 01 	deccc  %o3
   1071c:	d8 22 a0 08 	st  %o4, [ %o2 + 8 ]
   10720:	94 22 a0 0c 	sub  %o2, 0xc, %o2
   10724:	3c bf ff fc 	bpos,a   10714 <mem_init+0x28>
   10728:	c0 22 a0 04 	clr  [ %o2 + 4 ]
   1072c:	81 c3 e0 08 	retl 
   10730:	01 00 00 00 	nop 

0000000000010734 <_exit>:
   10734:	82 10 20 01 	mov  1, %g1	! 1 <_ld_libc+0x1>
   10738:	91 d0 20 08 	ta  8

000000000001073c <_return_zero>:
   1073c:	81 c3 e0 08 	retl 
   10740:	90 10 20 00 	clr  %o0

0000000000010744 <_return_one>:
   10744:	81 c3 e0 08 	retl 
   10748:	90 10 20 01 	mov  1, %o0

000000000001074c <_return_negone>:
   1074c:	81 c3 e0 08 	retl 
   10750:	90 10 3f ff 	mov  -1, %o0

0000000000010754 <_return_notsup>:
   10754:	81 c3 e0 08 	retl 
   10758:	90 10 20 30 	mov  0x30, %o0

000000000001075c <_thr_libthread>:
   1075c:	81 c3 e0 08 	retl 
   10760:	90 10 20 00 	clr  %o0

0000000000010764 <_libc_threads_interface>:
   10764:	9d e3 bf a0 	save  %sp, -96, %sp
   10768:	b6 90 00 18 	orcc  %g0, %i0, %i3
   1076c:	02 80 00 25 	be  10800 <_libc_threads_interface+0x9c>
   10770:	90 10 20 01 	mov  1, %o0
   10774:	13 00 00 9f 	sethi  %hi(0x27c00), %o1
   10778:	7f ff ff f9 	call  1075c <_thr_libthread>
   1077c:	d0 22 62 90 	st  %o0, [ %o1 + 0x290 ]	! 27e90 <__threaded>
   10780:	80 90 00 08 	tst  %o0
   10784:	12 80 00 32 	bne  1084c <_libc_threads_interface+0xe8>
   10788:	01 00 00 00 	nop 
   1078c:	11 00 00 9d 	sethi  %hi(0x27400), %o0
   10790:	f4 06 20 00 	ld  [ %i0 ], %i2
   10794:	b0 02 22 04 	add  %o0, 0x204, %i0
   10798:	11 00 00 5c 	sethi  %hi(0x17000), %o0
   1079c:	80 a6 a0 00 	cmp  %i2, 0
   107a0:	02 80 00 2b 	be  1084c <_libc_threads_interface+0xe8>
   107a4:	01 00 00 00 	nop 
   107a8:	b2 02 22 18 	add  %o0, 0x218, %i1
   107ac:	80 a6 a0 ba 	cmp  %i2, 0xba
   107b0:	26 80 00 09 	bl,a   107d4 <_libc_threads_interface+0x70>
   107b4:	d2 06 e0 04 	ld  [ %i3 + 4 ], %o1
   107b8:	40 00 10 4d 	call  148ec <strlen>
   107bc:	90 10 00 19 	mov  %i1, %o0
   107c0:	94 10 00 08 	mov  %o0, %o2
   107c4:	90 10 20 02 	mov  2, %o0
   107c8:	40 00 14 fb 	call  15bb4 <_write>
   107cc:	92 10 00 19 	mov  %i1, %o1
   107d0:	d2 06 e0 04 	ld  [ %i3 + 4 ], %o1
   107d4:	91 2e a0 02 	sll  %i2, 2, %o0
   107d8:	80 a2 60 00 	cmp  %o1, 0
   107dc:	02 80 00 03 	be  107e8 <_libc_threads_interface+0x84>
   107e0:	b6 06 e0 08 	add  %i3, 8, %i3
   107e4:	d2 22 00 18 	st  %o1, [ %o0 + %i0 ]
   107e8:	f4 06 e0 00 	ld  [ %i3 ], %i2
   107ec:	80 a6 a0 00 	cmp  %i2, 0
   107f0:	12 bf ff f0 	bne  107b0 <_libc_threads_interface+0x4c>
   107f4:	80 a6 a0 ba 	cmp  %i2, 0xba
   107f8:	81 c7 e0 08 	ret 
   107fc:	81 e8 00 00 	restore 
   10800:	11 00 00 9f 	sethi  %hi(0x27c00), %o0
   10804:	7f ff ff d6 	call  1075c <_thr_libthread>
   10808:	c0 22 22 90 	clr  [ %o0 + 0x290 ]	! 27e90 <__threaded>
   1080c:	80 90 00 08 	tst  %o0
   10810:	11 00 00 9c 	sethi  %hi(0x27000), %o0
   10814:	12 80 00 0e 	bne  1084c <_libc_threads_interface+0xe8>
   10818:	01 00 00 00 	nop 
   1081c:	92 02 23 1c 	add  %o0, 0x31c, %o1
   10820:	11 00 00 9d 	sethi  %hi(0x27400), %o0
   10824:	96 10 20 00 	clr  %o3
   10828:	94 02 22 04 	add  %o0, 0x204, %o2
   1082c:	d0 02 60 00 	ld  [ %o1 ], %o0
   10830:	d0 22 a0 00 	st  %o0, [ %o2 ]
   10834:	96 02 e0 01 	inc  %o3
   10838:	92 02 60 04 	add  %o1, 4, %o1
   1083c:	94 02 a0 04 	add  %o2, 4, %o2
   10840:	80 a2 e0 ba 	cmp  %o3, 0xba
   10844:	26 bf ff fb 	bl,a   10830 <_libc_threads_interface+0xcc>
   10848:	d0 02 60 00 	ld  [ %o1 ], %o0
   1084c:	81 c7 e0 08 	ret 
   10850:	81 e8 00 00 	restore 

0000000000010854 <_mutex_lock>:
   10854:	03 00 00 9d 	sethi  %hi(0x27400), %g1
   10858:	82 00 62 08 	add  %g1, 0x208, %g1	! 27608 <ti_jmp_table+0x4>
   1085c:	c2 00 60 00 	ld  [ %g1 ], %g1
   10860:	81 c0 40 00 	jmp  %g1
   10864:	01 00 00 00 	nop 

0000000000010868 <_mutex_unlock>:
   10868:	03 00 00 9d 	sethi  %hi(0x27400), %g1
   1086c:	82 00 62 0c 	add  %g1, 0x20c, %g1	! 2760c <ti_jmp_table+0x8>
   10870:	c2 00 60 00 	ld  [ %g1 ], %g1
   10874:	81 c0 40 00 	jmp  %g1
   10878:	01 00 00 00 	nop 

000000000001087c <_rw_rdlock>:
   1087c:	03 00 00 9d 	sethi  %hi(0x27400), %g1
   10880:	82 00 62 68 	add  %g1, 0x268, %g1	! 27668 <ti_jmp_table+0x64>
   10884:	c2 00 60 00 	ld  [ %g1 ], %g1
   10888:	81 c0 40 00 	jmp  %g1
   1088c:	01 00 00 00 	nop 

0000000000010890 <_rw_wrlock>:
   10890:	03 00 00 9d 	sethi  %hi(0x27400), %g1
   10894:	82 00 62 6c 	add  %g1, 0x26c, %g1	! 2766c <ti_jmp_table+0x68>
   10898:	c2 00 60 00 	ld  [ %g1 ], %g1
   1089c:	81 c0 40 00 	jmp  %g1
   108a0:	01 00 00 00 	nop 

00000000000108a4 <_rw_unlock>:
   108a4:	03 00 00 9d 	sethi  %hi(0x27400), %g1
   108a8:	82 00 62 70 	add  %g1, 0x270, %g1	! 27670 <ti_jmp_table+0x6c>
   108ac:	c2 00 60 00 	ld  [ %g1 ], %g1
   108b0:	81 c0 40 00 	jmp  %g1
   108b4:	01 00 00 00 	nop 

00000000000108b8 <_thr_self>:
   108b8:	03 00 00 9d 	sethi  %hi(0x27400), %g1
   108bc:	82 00 62 28 	add  %g1, 0x228, %g1	! 27628 <ti_jmp_table+0x24>
   108c0:	c2 00 60 00 	ld  [ %g1 ], %g1
   108c4:	81 c0 40 00 	jmp  %g1
   108c8:	01 00 00 00 	nop 

00000000000108cc <_cond_broadcast>:
   108cc:	03 00 00 9d 	sethi  %hi(0x27400), %g1
   108d0:	82 00 62 30 	add  %g1, 0x230, %g1	! 27630 <ti_jmp_table+0x2c>
   108d4:	c2 00 60 00 	ld  [ %g1 ], %g1
   108d8:	81 c0 40 00 	jmp  %g1
   108dc:	01 00 00 00 	nop 

00000000000108e0 <_cond_destroy>:
   108e0:	03 00 00 9d 	sethi  %hi(0x27400), %g1
   108e4:	82 00 62 34 	add  %g1, 0x234, %g1	! 27634 <ti_jmp_table+0x30>
   108e8:	c2 00 60 00 	ld  [ %g1 ], %g1
   108ec:	81 c0 40 00 	jmp  %g1
   108f0:	01 00 00 00 	nop 

00000000000108f4 <_cond_init>:
   108f4:	03 00 00 9d 	sethi  %hi(0x27400), %g1
   108f8:	82 00 62 38 	add  %g1, 0x238, %g1	! 27638 <ti_jmp_table+0x34>
   108fc:	c2 00 60 00 	ld  [ %g1 ], %g1
   10900:	81 c0 40 00 	jmp  %g1
   10904:	01 00 00 00 	nop 

0000000000010908 <_cond_signal>:
   10908:	03 00 00 9d 	sethi  %hi(0x27400), %g1
   1090c:	82 00 62 3c 	add  %g1, 0x23c, %g1	! 2763c <ti_jmp_table+0x38>
   10910:	c2 00 60 00 	ld  [ %g1 ], %g1
   10914:	81 c0 40 00 	jmp  %g1
   10918:	01 00 00 00 	nop 

000000000001091c <_cond_timedwait>:
   1091c:	03 00 00 9d 	sethi  %hi(0x27400), %g1
   10920:	82 00 62 40 	add  %g1, 0x240, %g1	! 27640 <ti_jmp_table+0x3c>
   10924:	c2 00 60 00 	ld  [ %g1 ], %g1
   10928:	81 c0 40 00 	jmp  %g1
   1092c:	01 00 00 00 	nop 

0000000000010930 <_cond_wait>:
   10930:	03 00 00 9d 	sethi  %hi(0x27400), %g1
   10934:	82 00 62 44 	add  %g1, 0x244, %g1	! 27644 <ti_jmp_table+0x40>
   10938:	c2 00 60 00 	ld  [ %g1 ], %g1
   1093c:	81 c0 40 00 	jmp  %g1
   10940:	01 00 00 00 	nop 

0000000000010944 <_fork>:
   10944:	03 00 00 9d 	sethi  %hi(0x27400), %g1
   10948:	82 00 62 48 	add  %g1, 0x248, %g1	! 27648 <ti_jmp_table+0x44>
   1094c:	c2 00 60 00 	ld  [ %g1 ], %g1
   10950:	81 c0 40 00 	jmp  %g1
   10954:	01 00 00 00 	nop 

0000000000010958 <_fork1>:
   10958:	03 00 00 9d 	sethi  %hi(0x27400), %g1
   1095c:	82 00 62 4c 	add  %g1, 0x24c, %g1	! 2764c <ti_jmp_table+0x48>
   10960:	c2 00 60 00 	ld  [ %g1 ], %g1
   10964:	81 c0 40 00 	jmp  %g1
   10968:	01 00 00 00 	nop 

000000000001096c <_mutex_destroy>:
   1096c:	03 00 00 9d 	sethi  %hi(0x27400), %g1
   10970:	82 00 62 50 	add  %g1, 0x250, %g1	! 27650 <ti_jmp_table+0x4c>
   10974:	c2 00 60 00 	ld  [ %g1 ], %g1
   10978:	81 c0 40 00 	jmp  %g1
   1097c:	01 00 00 00 	nop 

0000000000010980 <_mutex_held>:
   10980:	03 00 00 9d 	sethi  %hi(0x27400), %g1
   10984:	82 00 62 54 	add  %g1, 0x254, %g1	! 27654 <ti_jmp_table+0x50>
   10988:	c2 00 60 00 	ld  [ %g1 ], %g1
   1098c:	81 c0 40 00 	jmp  %g1
   10990:	01 00 00 00 	nop 

0000000000010994 <_mutex_init>:
   10994:	03 00 00 9d 	sethi  %hi(0x27400), %g1
   10998:	82 00 62 58 	add  %g1, 0x258, %g1	! 27658 <ti_jmp_table+0x54>
   1099c:	c2 00 60 00 	ld  [ %g1 ], %g1
   109a0:	81 c0 40 00 	jmp  %g1
   109a4:	01 00 00 00 	nop 

00000000000109a8 <_mutex_trylock>:
   109a8:	03 00 00 9d 	sethi  %hi(0x27400), %g1
   109ac:	82 00 62 5c 	add  %g1, 0x25c, %g1	! 2765c <ti_jmp_table+0x58>
   109b0:	c2 00 60 00 	ld  [ %g1 ], %g1
   109b4:	81 c0 40 00 	jmp  %g1
   109b8:	01 00 00 00 	nop 

00000000000109bc <_pthread_atfork>:
   109bc:	03 00 00 9d 	sethi  %hi(0x27400), %g1
   109c0:	82 00 62 60 	add  %g1, 0x260, %g1	! 27660 <ti_jmp_table+0x5c>
   109c4:	c2 00 60 00 	ld  [ %g1 ], %g1
   109c8:	81 c0 40 00 	jmp  %g1
   109cc:	01 00 00 00 	nop 

00000000000109d0 <_rw_read_held>:
   109d0:	03 00 00 9d 	sethi  %hi(0x27400), %g1
   109d4:	82 00 62 64 	add  %g1, 0x264, %g1	! 27664 <ti_jmp_table+0x60>
   109d8:	c2 00 60 00 	ld  [ %g1 ], %g1
   109dc:	81 c0 40 00 	jmp  %g1
   109e0:	01 00 00 00 	nop 

00000000000109e4 <_rw_tryrdlock>:
   109e4:	03 00 00 9d 	sethi  %hi(0x27400), %g1
   109e8:	82 00 62 74 	add  %g1, 0x274, %g1	! 27674 <ti_jmp_table+0x70>
   109ec:	c2 00 60 00 	ld  [ %g1 ], %g1
   109f0:	81 c0 40 00 	jmp  %g1
   109f4:	01 00 00 00 	nop 

00000000000109f8 <_rw_trywrlock>:
   109f8:	03 00 00 9d 	sethi  %hi(0x27400), %g1
   109fc:	82 00 62 78 	add  %g1, 0x278, %g1	! 27678 <ti_jmp_table+0x74>
   10a00:	c2 00 60 00 	ld  [ %g1 ], %g1
   10a04:	81 c0 40 00 	jmp  %g1
   10a08:	01 00 00 00 	nop 

0000000000010a0c <_rw_write_held>:
   10a0c:	03 00 00 9d 	sethi  %hi(0x27400), %g1
   10a10:	82 00 62 7c 	add  %g1, 0x27c, %g1	! 2767c <ti_jmp_table+0x78>
   10a14:	c2 00 60 00 	ld  [ %g1 ], %g1
   10a18:	81 c0 40 00 	jmp  %g1
   10a1c:	01 00 00 00 	nop 

0000000000010a20 <_rwlock_init>:
   10a20:	03 00 00 9d 	sethi  %hi(0x27400), %g1
   10a24:	82 00 62 80 	add  %g1, 0x280, %g1	! 27680 <ti_jmp_table+0x7c>
   10a28:	c2 00 60 00 	ld  [ %g1 ], %g1
   10a2c:	81 c0 40 00 	jmp  %g1
   10a30:	01 00 00 00 	nop 

0000000000010a34 <_sema_held>:
   10a34:	03 00 00 9d 	sethi  %hi(0x27400), %g1
   10a38:	82 00 62 84 	add  %g1, 0x284, %g1	! 27684 <ti_jmp_table+0x80>
   10a3c:	c2 00 60 00 	ld  [ %g1 ], %g1
   10a40:	81 c0 40 00 	jmp  %g1
   10a44:	01 00 00 00 	nop 

0000000000010a48 <_sema_init>:
   10a48:	03 00 00 9d 	sethi  %hi(0x27400), %g1
   10a4c:	82 00 62 88 	add  %g1, 0x288, %g1	! 27688 <ti_jmp_table+0x84>
   10a50:	c2 00 60 00 	ld  [ %g1 ], %g1
   10a54:	81 c0 40 00 	jmp  %g1
   10a58:	01 00 00 00 	nop 

0000000000010a5c <_sema_post>:
   10a5c:	03 00 00 9d 	sethi  %hi(0x27400), %g1
   10a60:	82 00 62 8c 	add  %g1, 0x28c, %g1	! 2768c <ti_jmp_table+0x88>
   10a64:	c2 00 60 00 	ld  [ %g1 ], %g1
   10a68:	81 c0 40 00 	jmp  %g1
   10a6c:	01 00 00 00 	nop 

0000000000010a70 <_sema_trywait>:
   10a70:	03 00 00 9d 	sethi  %hi(0x27400), %g1
   10a74:	82 00 62 90 	add  %g1, 0x290, %g1	! 27690 <ti_jmp_table+0x8c>
   10a78:	c2 00 60 00 	ld  [ %g1 ], %g1
   10a7c:	81 c0 40 00 	jmp  %g1
   10a80:	01 00 00 00 	nop 

0000000000010a84 <_sema_wait>:
   10a84:	03 00 00 9d 	sethi  %hi(0x27400), %g1
   10a88:	82 00 62 94 	add  %g1, 0x294, %g1	! 27694 <ti_jmp_table+0x90>
   10a8c:	c2 00 60 00 	ld  [ %g1 ], %g1
   10a90:	81 c0 40 00 	jmp  %g1
   10a94:	01 00 00 00 	nop 

0000000000010a98 <_sigaction>:
   10a98:	03 00 00 9d 	sethi  %hi(0x27400), %g1
   10a9c:	82 00 62 98 	add  %g1, 0x298, %g1	! 27698 <ti_jmp_table+0x94>
   10aa0:	c2 00 60 00 	ld  [ %g1 ], %g1
   10aa4:	81 c0 40 00 	jmp  %g1
   10aa8:	01 00 00 00 	nop 

0000000000010aac <_sigprocmask>:
   10aac:	03 00 00 9d 	sethi  %hi(0x27400), %g1
   10ab0:	82 00 62 9c 	add  %g1, 0x29c, %g1	! 2769c <ti_jmp_table+0x98>
   10ab4:	c2 00 60 00 	ld  [ %g1 ], %g1
   10ab8:	81 c0 40 00 	jmp  %g1
   10abc:	01 00 00 00 	nop 

0000000000010ac0 <_sigwait>:
   10ac0:	03 00 00 9d 	sethi  %hi(0x27400), %g1
   10ac4:	82 00 62 a0 	add  %g1, 0x2a0, %g1	! 276a0 <ti_jmp_table+0x9c>
   10ac8:	c2 00 60 00 	ld  [ %g1 ], %g1
   10acc:	81 c0 40 00 	jmp  %g1
   10ad0:	01 00 00 00 	nop 

0000000000010ad4 <_sleep>:
   10ad4:	03 00 00 9d 	sethi  %hi(0x27400), %g1
   10ad8:	82 00 62 a4 	add  %g1, 0x2a4, %g1	! 276a4 <ti_jmp_table+0xa0>
   10adc:	c2 00 60 00 	ld  [ %g1 ], %g1
   10ae0:	81 c0 40 00 	jmp  %g1
   10ae4:	01 00 00 00 	nop 

0000000000010ae8 <_thr_continue>:
   10ae8:	03 00 00 9d 	sethi  %hi(0x27400), %g1
   10aec:	82 00 62 a8 	add  %g1, 0x2a8, %g1	! 276a8 <ti_jmp_table+0xa4>
   10af0:	c2 00 60 00 	ld  [ %g1 ], %g1
   10af4:	81 c0 40 00 	jmp  %g1
   10af8:	01 00 00 00 	nop 

0000000000010afc <_thr_create>:
   10afc:	03 00 00 9d 	sethi  %hi(0x27400), %g1
   10b00:	82 00 62 ac 	add  %g1, 0x2ac, %g1	! 276ac <ti_jmp_table+0xa8>
   10b04:	c2 00 60 00 	ld  [ %g1 ], %g1
   10b08:	81 c0 40 00 	jmp  %g1
   10b0c:	01 00 00 00 	nop 

0000000000010b10 <_thr_errnop>:
   10b10:	03 00 00 9d 	sethi  %hi(0x27400), %g1
   10b14:	82 00 62 b0 	add  %g1, 0x2b0, %g1	! 276b0 <ti_jmp_table+0xac>
   10b18:	c2 00 60 00 	ld  [ %g1 ], %g1
   10b1c:	81 c0 40 00 	jmp  %g1
   10b20:	01 00 00 00 	nop 

0000000000010b24 <_thr_exit>:
   10b24:	03 00 00 9d 	sethi  %hi(0x27400), %g1
   10b28:	82 00 62 b4 	add  %g1, 0x2b4, %g1	! 276b4 <ti_jmp_table+0xb0>
   10b2c:	c2 00 60 00 	ld  [ %g1 ], %g1
   10b30:	81 c0 40 00 	jmp  %g1
   10b34:	01 00 00 00 	nop 

0000000000010b38 <_thr_getconcurrency>:
   10b38:	03 00 00 9d 	sethi  %hi(0x27400), %g1
   10b3c:	82 00 62 b8 	add  %g1, 0x2b8, %g1	! 276b8 <ti_jmp_table+0xb4>
   10b40:	c2 00 60 00 	ld  [ %g1 ], %g1
   10b44:	81 c0 40 00 	jmp  %g1
   10b48:	01 00 00 00 	nop 

0000000000010b4c <_thr_getprio>:
   10b4c:	03 00 00 9d 	sethi  %hi(0x27400), %g1
   10b50:	82 00 62 bc 	add  %g1, 0x2bc, %g1	! 276bc <ti_jmp_table+0xb8>
   10b54:	c2 00 60 00 	ld  [ %g1 ], %g1
   10b58:	81 c0 40 00 	jmp  %g1
   10b5c:	01 00 00 00 	nop 

0000000000010b60 <_thr_getspecific>:
   10b60:	03 00 00 9d 	sethi  %hi(0x27400), %g1
   10b64:	82 00 62 c0 	add  %g1, 0x2c0, %g1	! 276c0 <ti_jmp_table+0xbc>
   10b68:	c2 00 60 00 	ld  [ %g1 ], %g1
   10b6c:	81 c0 40 00 	jmp  %g1
   10b70:	01 00 00 00 	nop 

0000000000010b74 <_thr_join>:
   10b74:	03 00 00 9d 	sethi  %hi(0x27400), %g1
   10b78:	82 00 62 c4 	add  %g1, 0x2c4, %g1	! 276c4 <ti_jmp_table+0xc0>
   10b7c:	c2 00 60 00 	ld  [ %g1 ], %g1
   10b80:	81 c0 40 00 	jmp  %g1
   10b84:	01 00 00 00 	nop 

0000000000010b88 <_thr_keycreate>:
   10b88:	03 00 00 9d 	sethi  %hi(0x27400), %g1
   10b8c:	82 00 62 c8 	add  %g1, 0x2c8, %g1	! 276c8 <ti_jmp_table+0xc4>
   10b90:	c2 00 60 00 	ld  [ %g1 ], %g1
   10b94:	81 c0 40 00 	jmp  %g1
   10b98:	01 00 00 00 	nop 

0000000000010b9c <_thr_kill>:
   10b9c:	03 00 00 9d 	sethi  %hi(0x27400), %g1
   10ba0:	82 00 62 cc 	add  %g1, 0x2cc, %g1	! 276cc <ti_jmp_table+0xc8>
   10ba4:	c2 00 60 00 	ld  [ %g1 ], %g1
   10ba8:	81 c0 40 00 	jmp  %g1
   10bac:	01 00 00 00 	nop 

0000000000010bb0 <_thr_main>:
   10bb0:	03 00 00 9d 	sethi  %hi(0x27400), %g1
   10bb4:	82 00 62 d0 	add  %g1, 0x2d0, %g1	! 276d0 <ti_jmp_table+0xcc>
   10bb8:	c2 00 60 00 	ld  [ %g1 ], %g1
   10bbc:	81 c0 40 00 	jmp  %g1
   10bc0:	01 00 00 00 	nop 

0000000000010bc4 <_thr_setconcurrency>:
   10bc4:	03 00 00 9d 	sethi  %hi(0x27400), %g1
   10bc8:	82 00 62 d4 	add  %g1, 0x2d4, %g1	! 276d4 <ti_jmp_table+0xd0>
   10bcc:	c2 00 60 00 	ld  [ %g1 ], %g1
   10bd0:	81 c0 40 00 	jmp  %g1
   10bd4:	01 00 00 00 	nop 

0000000000010bd8 <_thr_setprio>:
   10bd8:	03 00 00 9d 	sethi  %hi(0x27400), %g1
   10bdc:	82 00 62 d8 	add  %g1, 0x2d8, %g1	! 276d8 <ti_jmp_table+0xd4>
   10be0:	c2 00 60 00 	ld  [ %g1 ], %g1
   10be4:	81 c0 40 00 	jmp  %g1
   10be8:	01 00 00 00 	nop 

0000000000010bec <_thr_setspecific>:
   10bec:	03 00 00 9d 	sethi  %hi(0x27400), %g1
   10bf0:	82 00 62 dc 	add  %g1, 0x2dc, %g1	! 276dc <ti_jmp_table+0xd8>
   10bf4:	c2 00 60 00 	ld  [ %g1 ], %g1
   10bf8:	81 c0 40 00 	jmp  %g1
   10bfc:	01 00 00 00 	nop 

0000000000010c00 <_thr_sigsetmask>:
   10c00:	03 00 00 9d 	sethi  %hi(0x27400), %g1
   10c04:	82 00 62 e0 	add  %g1, 0x2e0, %g1	! 276e0 <ti_jmp_table+0xdc>
   10c08:	c2 00 60 00 	ld  [ %g1 ], %g1
   10c0c:	81 c0 40 00 	jmp  %g1
   10c10:	01 00 00 00 	nop 

0000000000010c14 <_thr_stksegment>:
   10c14:	03 00 00 9d 	sethi  %hi(0x27400), %g1
   10c18:	82 00 62 e4 	add  %g1, 0x2e4, %g1	! 276e4 <ti_jmp_table+0xe0>
   10c1c:	c2 00 60 00 	ld  [ %g1 ], %g1
   10c20:	81 c0 40 00 	jmp  %g1
   10c24:	01 00 00 00 	nop 

0000000000010c28 <_thr_suspend>:
   10c28:	03 00 00 9d 	sethi  %hi(0x27400), %g1
   10c2c:	82 00 62 e8 	add  %g1, 0x2e8, %g1	! 276e8 <ti_jmp_table+0xe4>
   10c30:	c2 00 60 00 	ld  [ %g1 ], %g1
   10c34:	81 c0 40 00 	jmp  %g1
   10c38:	01 00 00 00 	nop 

0000000000010c3c <_thr_yield>:
   10c3c:	03 00 00 9d 	sethi  %hi(0x27400), %g1
   10c40:	82 00 62 ec 	add  %g1, 0x2ec, %g1	! 276ec <ti_jmp_table+0xe8>
   10c44:	c2 00 60 00 	ld  [ %g1 ], %g1
   10c48:	81 c0 40 00 	jmp  %g1
   10c4c:	01 00 00 00 	nop 

0000000000010c50 <close>:
   10c50:	03 00 00 9d 	sethi  %hi(0x27400), %g1
   10c54:	82 00 62 f0 	add  %g1, 0x2f0, %g1	! 276f0 <ti_jmp_table+0xec>
   10c58:	c2 00 60 00 	ld  [ %g1 ], %g1
   10c5c:	81 c0 40 00 	jmp  %g1
   10c60:	01 00 00 00 	nop 

0000000000010c64 <creat>:
   10c64:	03 00 00 9d 	sethi  %hi(0x27400), %g1
   10c68:	82 00 62 f4 	add  %g1, 0x2f4, %g1	! 276f4 <ti_jmp_table+0xf0>
   10c6c:	c2 00 60 00 	ld  [ %g1 ], %g1
   10c70:	81 c0 40 00 	jmp  %g1
   10c74:	01 00 00 00 	nop 

0000000000010c78 <fcntl>:
   10c78:	03 00 00 9d 	sethi  %hi(0x27400), %g1
   10c7c:	82 00 62 f8 	add  %g1, 0x2f8, %g1	! 276f8 <ti_jmp_table+0xf4>
   10c80:	c2 00 60 00 	ld  [ %g1 ], %g1
   10c84:	81 c0 40 00 	jmp  %g1
   10c88:	01 00 00 00 	nop 

0000000000010c8c <fsync>:
   10c8c:	03 00 00 9d 	sethi  %hi(0x27400), %g1
   10c90:	82 00 62 fc 	add  %g1, 0x2fc, %g1	! 276fc <ti_jmp_table+0xf8>
   10c94:	c2 00 60 00 	ld  [ %g1 ], %g1
   10c98:	81 c0 40 00 	jmp  %g1
   10c9c:	01 00 00 00 	nop 

0000000000010ca0 <msync>:
   10ca0:	03 00 00 9d 	sethi  %hi(0x27400), %g1
   10ca4:	82 00 63 00 	add  %g1, 0x300, %g1	! 27700 <ti_jmp_table+0xfc>
   10ca8:	c2 00 60 00 	ld  [ %g1 ], %g1
   10cac:	81 c0 40 00 	jmp  %g1
   10cb0:	01 00 00 00 	nop 

0000000000010cb4 <open>:
   10cb4:	03 00 00 9d 	sethi  %hi(0x27400), %g1
   10cb8:	82 00 63 04 	add  %g1, 0x304, %g1	! 27704 <ti_jmp_table+0x100>
   10cbc:	c2 00 60 00 	ld  [ %g1 ], %g1
   10cc0:	81 c0 40 00 	jmp  %g1
   10cc4:	01 00 00 00 	nop 

0000000000010cc8 <pause>:
   10cc8:	03 00 00 9d 	sethi  %hi(0x27400), %g1
   10ccc:	82 00 63 08 	add  %g1, 0x308, %g1	! 27708 <ti_jmp_table+0x104>
   10cd0:	c2 00 60 00 	ld  [ %g1 ], %g1
   10cd4:	81 c0 40 00 	jmp  %g1
   10cd8:	01 00 00 00 	nop 

0000000000010cdc <read>:
   10cdc:	03 00 00 9d 	sethi  %hi(0x27400), %g1
   10ce0:	82 00 63 0c 	add  %g1, 0x30c, %g1	! 2770c <ti_jmp_table+0x108>
   10ce4:	c2 00 60 00 	ld  [ %g1 ], %g1
   10ce8:	81 c0 40 00 	jmp  %g1
   10cec:	01 00 00 00 	nop 

0000000000010cf0 <sigsuspend>:
   10cf0:	03 00 00 9d 	sethi  %hi(0x27400), %g1
   10cf4:	82 00 63 10 	add  %g1, 0x310, %g1	! 27710 <ti_jmp_table+0x10c>
   10cf8:	c2 00 60 00 	ld  [ %g1 ], %g1
   10cfc:	81 c0 40 00 	jmp  %g1
   10d00:	01 00 00 00 	nop 

0000000000010d04 <tcdrain>:
   10d04:	03 00 00 9d 	sethi  %hi(0x27400), %g1
   10d08:	82 00 63 14 	add  %g1, 0x314, %g1	! 27714 <ti_jmp_table+0x110>
   10d0c:	c2 00 60 00 	ld  [ %g1 ], %g1
   10d10:	81 c0 40 00 	jmp  %g1
   10d14:	01 00 00 00 	nop 

0000000000010d18 <wait>:
   10d18:	03 00 00 9d 	sethi  %hi(0x27400), %g1
   10d1c:	82 00 63 18 	add  %g1, 0x318, %g1	! 27718 <ti_jmp_table+0x114>
   10d20:	c2 00 60 00 	ld  [ %g1 ], %g1
   10d24:	81 c0 40 00 	jmp  %g1
   10d28:	01 00 00 00 	nop 

0000000000010d2c <waitpid>:
   10d2c:	03 00 00 9d 	sethi  %hi(0x27400), %g1
   10d30:	82 00 63 1c 	add  %g1, 0x31c, %g1	! 2771c <ti_jmp_table+0x118>
   10d34:	c2 00 60 00 	ld  [ %g1 ], %g1
   10d38:	81 c0 40 00 	jmp  %g1
   10d3c:	01 00 00 00 	nop 

0000000000010d40 <write>:
   10d40:	03 00 00 9d 	sethi  %hi(0x27400), %g1
   10d44:	82 00 63 20 	add  %g1, 0x320, %g1	! 27720 <ti_jmp_table+0x11c>
   10d48:	c2 00 60 00 	ld  [ %g1 ], %g1
   10d4c:	81 c0 40 00 	jmp  %g1
   10d50:	01 00 00 00 	nop 

0000000000010d54 <_pthread_cond_broadcast>:
   10d54:	03 00 00 9d 	sethi  %hi(0x27400), %g1
   10d58:	82 00 63 24 	add  %g1, 0x324, %g1	! 27724 <ti_jmp_table+0x120>
   10d5c:	c2 00 60 00 	ld  [ %g1 ], %g1
   10d60:	81 c0 40 00 	jmp  %g1
   10d64:	01 00 00 00 	nop 

0000000000010d68 <_pthread_cond_destroy>:
   10d68:	03 00 00 9d 	sethi  %hi(0x27400), %g1
   10d6c:	82 00 63 28 	add  %g1, 0x328, %g1	! 27728 <ti_jmp_table+0x124>
   10d70:	c2 00 60 00 	ld  [ %g1 ], %g1
   10d74:	81 c0 40 00 	jmp  %g1
   10d78:	01 00 00 00 	nop 

0000000000010d7c <_pthread_cond_init>:
   10d7c:	03 00 00 9d 	sethi  %hi(0x27400), %g1
   10d80:	82 00 63 2c 	add  %g1, 0x32c, %g1	! 2772c <ti_jmp_table+0x128>
   10d84:	c2 00 60 00 	ld  [ %g1 ], %g1
   10d88:	81 c0 40 00 	jmp  %g1
   10d8c:	01 00 00 00 	nop 

0000000000010d90 <_pthread_cond_signal>:
   10d90:	03 00 00 9d 	sethi  %hi(0x27400), %g1
   10d94:	82 00 63 30 	add  %g1, 0x330, %g1	! 27730 <ti_jmp_table+0x12c>
   10d98:	c2 00 60 00 	ld  [ %g1 ], %g1
   10d9c:	81 c0 40 00 	jmp  %g1
   10da0:	01 00 00 00 	nop 

0000000000010da4 <_pthread_cond_timedwait>:
   10da4:	03 00 00 9d 	sethi  %hi(0x27400), %g1
   10da8:	82 00 63 34 	add  %g1, 0x334, %g1	! 27734 <ti_jmp_table+0x130>
   10dac:	c2 00 60 00 	ld  [ %g1 ], %g1
   10db0:	81 c0 40 00 	jmp  %g1
   10db4:	01 00 00 00 	nop 

0000000000010db8 <_pthread_cond_wait>:
   10db8:	03 00 00 9d 	sethi  %hi(0x27400), %g1
   10dbc:	82 00 63 38 	add  %g1, 0x338, %g1	! 27738 <ti_jmp_table+0x134>
   10dc0:	c2 00 60 00 	ld  [ %g1 ], %g1
   10dc4:	81 c0 40 00 	jmp  %g1
   10dc8:	01 00 00 00 	nop 

0000000000010dcc <_pthread_condattr_destroy>:
   10dcc:	03 00 00 9d 	sethi  %hi(0x27400), %g1
   10dd0:	82 00 63 3c 	add  %g1, 0x33c, %g1	! 2773c <ti_jmp_table+0x138>
   10dd4:	c2 00 60 00 	ld  [ %g1 ], %g1
   10dd8:	81 c0 40 00 	jmp  %g1
   10ddc:	01 00 00 00 	nop 

0000000000010de0 <_pthread_condattr_getpshared>:
   10de0:	03 00 00 9d 	sethi  %hi(0x27400), %g1
   10de4:	82 00 63 40 	add  %g1, 0x340, %g1	! 27740 <ti_jmp_table+0x13c>
   10de8:	c2 00 60 00 	ld  [ %g1 ], %g1
   10dec:	81 c0 40 00 	jmp  %g1
   10df0:	01 00 00 00 	nop 

0000000000010df4 <_pthread_condattr_init>:
   10df4:	03 00 00 9d 	sethi  %hi(0x27400), %g1
   10df8:	82 00 63 44 	add  %g1, 0x344, %g1	! 27744 <ti_jmp_table+0x140>
   10dfc:	c2 00 60 00 	ld  [ %g1 ], %g1
   10e00:	81 c0 40 00 	jmp  %g1
   10e04:	01 00 00 00 	nop 

0000000000010e08 <_pthread_condattr_setpshared>:
   10e08:	03 00 00 9d 	sethi  %hi(0x27400), %g1
   10e0c:	82 00 63 48 	add  %g1, 0x348, %g1	! 27748 <ti_jmp_table+0x144>
   10e10:	c2 00 60 00 	ld  [ %g1 ], %g1
   10e14:	81 c0 40 00 	jmp  %g1
   10e18:	01 00 00 00 	nop 

0000000000010e1c <_pthread_mutex_destroy>:
   10e1c:	03 00 00 9d 	sethi  %hi(0x27400), %g1
   10e20:	82 00 63 4c 	add  %g1, 0x34c, %g1	! 2774c <ti_jmp_table+0x148>
   10e24:	c2 00 60 00 	ld  [ %g1 ], %g1
   10e28:	81 c0 40 00 	jmp  %g1
   10e2c:	01 00 00 00 	nop 

0000000000010e30 <_pthread_mutex_getprioceiling>:
   10e30:	03 00 00 9d 	sethi  %hi(0x27400), %g1
   10e34:	82 00 63 50 	add  %g1, 0x350, %g1	! 27750 <ti_jmp_table+0x14c>
   10e38:	c2 00 60 00 	ld  [ %g1 ], %g1
   10e3c:	81 c0 40 00 	jmp  %g1
   10e40:	01 00 00 00 	nop 

0000000000010e44 <_pthread_mutex_init>:
   10e44:	03 00 00 9d 	sethi  %hi(0x27400), %g1
   10e48:	82 00 63 54 	add  %g1, 0x354, %g1	! 27754 <ti_jmp_table+0x150>
   10e4c:	c2 00 60 00 	ld  [ %g1 ], %g1
   10e50:	81 c0 40 00 	jmp  %g1
   10e54:	01 00 00 00 	nop 

0000000000010e58 <_pthread_mutex_lock>:
   10e58:	03 00 00 9d 	sethi  %hi(0x27400), %g1
   10e5c:	82 00 63 58 	add  %g1, 0x358, %g1	! 27758 <ti_jmp_table+0x154>
   10e60:	c2 00 60 00 	ld  [ %g1 ], %g1
   10e64:	81 c0 40 00 	jmp  %g1
   10e68:	01 00 00 00 	nop 

0000000000010e6c <_pthread_mutex_setprioceiling>:
   10e6c:	03 00 00 9d 	sethi  %hi(0x27400), %g1
   10e70:	82 00 63 5c 	add  %g1, 0x35c, %g1	! 2775c <ti_jmp_table+0x158>
   10e74:	c2 00 60 00 	ld  [ %g1 ], %g1
   10e78:	81 c0 40 00 	jmp  %g1
   10e7c:	01 00 00 00 	nop 

0000000000010e80 <_pthread_mutex_trylock>:
   10e80:	03 00 00 9d 	sethi  %hi(0x27400), %g1
   10e84:	82 00 63 60 	add  %g1, 0x360, %g1	! 27760 <ti_jmp_table+0x15c>
   10e88:	c2 00 60 00 	ld  [ %g1 ], %g1
   10e8c:	81 c0 40 00 	jmp  %g1
   10e90:	01 00 00 00 	nop 

0000000000010e94 <_pthread_mutex_unlock>:
   10e94:	03 00 00 9d 	sethi  %hi(0x27400), %g1
   10e98:	82 00 63 64 	add  %g1, 0x364, %g1	! 27764 <ti_jmp_table+0x160>
   10e9c:	c2 00 60 00 	ld  [ %g1 ], %g1
   10ea0:	81 c0 40 00 	jmp  %g1
   10ea4:	01 00 00 00 	nop 

0000000000010ea8 <_pthread_mutexattr_destroy>:
   10ea8:	03 00 00 9d 	sethi  %hi(0x27400), %g1
   10eac:	82 00 63 68 	add  %g1, 0x368, %g1	! 27768 <ti_jmp_table+0x164>
   10eb0:	c2 00 60 00 	ld  [ %g1 ], %g1
   10eb4:	81 c0 40 00 	jmp  %g1
   10eb8:	01 00 00 00 	nop 

0000000000010ebc <_pthread_mutexattr_getprioceiling>:
   10ebc:	03 00 00 9d 	sethi  %hi(0x27400), %g1
   10ec0:	82 00 63 6c 	add  %g1, 0x36c, %g1	! 2776c <ti_jmp_table+0x168>
   10ec4:	c2 00 60 00 	ld  [ %g1 ], %g1
   10ec8:	81 c0 40 00 	jmp  %g1
   10ecc:	01 00 00 00 	nop 

0000000000010ed0 <_pthread_mutexattr_getprotocol>:
   10ed0:	03 00 00 9d 	sethi  %hi(0x27400), %g1
   10ed4:	82 00 63 70 	add  %g1, 0x370, %g1	! 27770 <ti_jmp_table+0x16c>
   10ed8:	c2 00 60 00 	ld  [ %g1 ], %g1
   10edc:	81 c0 40 00 	jmp  %g1
   10ee0:	01 00 00 00 	nop 

0000000000010ee4 <_pthread_mutexattr_getpshared>:
   10ee4:	03 00 00 9d 	sethi  %hi(0x27400), %g1
   10ee8:	82 00 63 74 	add  %g1, 0x374, %g1	! 27774 <ti_jmp_table+0x170>
   10eec:	c2 00 60 00 	ld  [ %g1 ], %g1
   10ef0:	81 c0 40 00 	jmp  %g1
   10ef4:	01 00 00 00 	nop 

0000000000010ef8 <_pthread_mutexattr_init>:
   10ef8:	03 00 00 9d 	sethi  %hi(0x27400), %g1
   10efc:	82 00 63 78 	add  %g1, 0x378, %g1	! 27778 <ti_jmp_table+0x174>
   10f00:	c2 00 60 00 	ld  [ %g1 ], %g1
   10f04:	81 c0 40 00 	jmp  %g1
   10f08:	01 00 00 00 	nop 

0000000000010f0c <_pthread_mutexattr_setprioceiling>:
   10f0c:	03 00 00 9d 	sethi  %hi(0x27400), %g1
   10f10:	82 00 63 7c 	add  %g1, 0x37c, %g1	! 2777c <ti_jmp_table+0x178>
   10f14:	c2 00 60 00 	ld  [ %g1 ], %g1
   10f18:	81 c0 40 00 	jmp  %g1
   10f1c:	01 00 00 00 	nop 

0000000000010f20 <_pthread_mutexattr_setprotocol>:
   10f20:	03 00 00 9d 	sethi  %hi(0x27400), %g1
   10f24:	82 00 63 80 	add  %g1, 0x380, %g1	! 27780 <ti_jmp_table+0x17c>
   10f28:	c2 00 60 00 	ld  [ %g1 ], %g1
   10f2c:	81 c0 40 00 	jmp  %g1
   10f30:	01 00 00 00 	nop 

0000000000010f34 <_pthread_mutexattr_setpshared>:
   10f34:	03 00 00 9d 	sethi  %hi(0x27400), %g1
   10f38:	82 00 63 84 	add  %g1, 0x384, %g1	! 27784 <ti_jmp_table+0x180>
   10f3c:	c2 00 60 00 	ld  [ %g1 ], %g1
   10f40:	81 c0 40 00 	jmp  %g1
   10f44:	01 00 00 00 	nop 

0000000000010f48 <_thr_min_stack>:
   10f48:	03 00 00 9d 	sethi  %hi(0x27400), %g1
   10f4c:	82 00 63 88 	add  %g1, 0x388, %g1	! 27788 <ti_jmp_table+0x184>
   10f50:	c2 00 60 00 	ld  [ %g1 ], %g1
   10f54:	81 c0 40 00 	jmp  %g1
   10f58:	01 00 00 00 	nop 

0000000000010f5c <__sigtimedwait>:
   10f5c:	03 00 00 9d 	sethi  %hi(0x27400), %g1
   10f60:	82 00 63 8c 	add  %g1, 0x38c, %g1	! 2778c <ti_jmp_table+0x188>
   10f64:	c2 00 60 00 	ld  [ %g1 ], %g1
   10f68:	81 c0 40 00 	jmp  %g1
   10f6c:	01 00 00 00 	nop 

0000000000010f70 <_alarm>:
   10f70:	03 00 00 9d 	sethi  %hi(0x27400), %g1
   10f74:	82 00 63 90 	add  %g1, 0x390, %g1	! 27790 <ti_jmp_table+0x18c>
   10f78:	c2 00 60 00 	ld  [ %g1 ], %g1
   10f7c:	81 c0 40 00 	jmp  %g1
   10f80:	01 00 00 00 	nop 

0000000000010f84 <_setitimer>:
   10f84:	03 00 00 9d 	sethi  %hi(0x27400), %g1
   10f88:	82 00 63 94 	add  %g1, 0x394, %g1	! 27794 <ti_jmp_table+0x190>
   10f8c:	c2 00 60 00 	ld  [ %g1 ], %g1
   10f90:	81 c0 40 00 	jmp  %g1
   10f94:	01 00 00 00 	nop 

0000000000010f98 <_siglongjmp>:
   10f98:	03 00 00 9d 	sethi  %hi(0x27400), %g1
   10f9c:	82 00 63 98 	add  %g1, 0x398, %g1	! 27798 <ti_jmp_table+0x194>
   10fa0:	c2 00 60 00 	ld  [ %g1 ], %g1
   10fa4:	81 c0 40 00 	jmp  %g1
   10fa8:	01 00 00 00 	nop 

0000000000010fac <sigpending>:
   10fac:	03 00 00 9d 	sethi  %hi(0x27400), %g1
   10fb0:	82 00 63 a0 	add  %g1, 0x3a0, %g1	! 277a0 <ti_jmp_table+0x19c>
   10fb4:	c2 00 60 00 	ld  [ %g1 ], %g1
   10fb8:	81 c0 40 00 	jmp  %g1
   10fbc:	01 00 00 00 	nop 

0000000000010fc0 <__nanosleep>:
   10fc0:	03 00 00 9d 	sethi  %hi(0x27400), %g1
   10fc4:	82 00 63 a4 	add  %g1, 0x3a4, %g1	! 277a4 <ti_jmp_table+0x1a0>
   10fc8:	c2 00 60 00 	ld  [ %g1 ], %g1
   10fcc:	81 c0 40 00 	jmp  %g1
   10fd0:	01 00 00 00 	nop 

0000000000010fd4 <open64>:
   10fd4:	03 00 00 9d 	sethi  %hi(0x27400), %g1
   10fd8:	82 00 63 a8 	add  %g1, 0x3a8, %g1	! 277a8 <ti_jmp_table+0x1a4>
   10fdc:	c2 00 60 00 	ld  [ %g1 ], %g1
   10fe0:	81 c0 40 00 	jmp  %g1
   10fe4:	01 00 00 00 	nop 

0000000000010fe8 <creat64>:
   10fe8:	03 00 00 9d 	sethi  %hi(0x27400), %g1
   10fec:	82 00 63 ac 	add  %g1, 0x3ac, %g1	! 277ac <ti_jmp_table+0x1a8>
   10ff0:	c2 00 60 00 	ld  [ %g1 ], %g1
   10ff4:	81 c0 40 00 	jmp  %g1
   10ff8:	01 00 00 00 	nop 

0000000000010ffc <_rwlock_destroy>:
   10ffc:	03 00 00 9d 	sethi  %hi(0x27400), %g1
   11000:	82 00 63 b0 	add  %g1, 0x3b0, %g1	! 277b0 <ti_jmp_table+0x1ac>
   11004:	c2 00 60 00 	ld  [ %g1 ], %g1
   11008:	81 c0 40 00 	jmp  %g1
   1100c:	01 00 00 00 	nop 

0000000000011010 <_sema_destroy>:
   11010:	03 00 00 9d 	sethi  %hi(0x27400), %g1
   11014:	82 00 63 b4 	add  %g1, 0x3b4, %g1	! 277b4 <ti_jmp_table+0x1b0>
   11018:	c2 00 60 00 	ld  [ %g1 ], %g1
   1101c:	81 c0 40 00 	jmp  %g1
   11020:	01 00 00 00 	nop 

0000000000011024 <_pthread_self>:
   11024:	03 00 00 9d 	sethi  %hi(0x27400), %g1
   11028:	82 00 63 b8 	add  %g1, 0x3b8, %g1	! 277b8 <ti_jmp_table+0x1b4>
   1102c:	c2 00 60 00 	ld  [ %g1 ], %g1
   11030:	81 c0 40 00 	jmp  %g1
   11034:	01 00 00 00 	nop 

0000000000011038 <_pthread_sigmask>:
   11038:	03 00 00 9d 	sethi  %hi(0x27400), %g1
   1103c:	82 00 63 bc 	add  %g1, 0x3bc, %g1	! 277bc <ti_jmp_table+0x1b8>
   11040:	c2 00 60 00 	ld  [ %g1 ], %g1
   11044:	81 c0 40 00 	jmp  %g1
   11048:	01 00 00 00 	nop 

000000000001104c <_pthread_attr_destroy>:
   1104c:	03 00 00 9d 	sethi  %hi(0x27400), %g1
   11050:	82 00 63 c0 	add  %g1, 0x3c0, %g1	! 277c0 <ti_jmp_table+0x1bc>
   11054:	c2 00 60 00 	ld  [ %g1 ], %g1
   11058:	81 c0 40 00 	jmp  %g1
   1105c:	01 00 00 00 	nop 

0000000000011060 <_pthread_attr_getdetachstate>:
   11060:	03 00 00 9d 	sethi  %hi(0x27400), %g1
   11064:	82 00 63 c4 	add  %g1, 0x3c4, %g1	! 277c4 <ti_jmp_table+0x1c0>
   11068:	c2 00 60 00 	ld  [ %g1 ], %g1
   1106c:	81 c0 40 00 	jmp  %g1
   11070:	01 00 00 00 	nop 

0000000000011074 <_pthread_attr_getinheritsched>:
   11074:	03 00 00 9d 	sethi  %hi(0x27400), %g1
   11078:	82 00 63 c8 	add  %g1, 0x3c8, %g1	! 277c8 <ti_jmp_table+0x1c4>
   1107c:	c2 00 60 00 	ld  [ %g1 ], %g1
   11080:	81 c0 40 00 	jmp  %g1
   11084:	01 00 00 00 	nop 

0000000000011088 <_pthread_attr_getschedparam>:
   11088:	03 00 00 9d 	sethi  %hi(0x27400), %g1
   1108c:	82 00 63 cc 	add  %g1, 0x3cc, %g1	! 277cc <ti_jmp_table+0x1c8>
   11090:	c2 00 60 00 	ld  [ %g1 ], %g1
   11094:	81 c0 40 00 	jmp  %g1
   11098:	01 00 00 00 	nop 

000000000001109c <_pthread_attr_getschedpolicy>:
   1109c:	03 00 00 9d 	sethi  %hi(0x27400), %g1
   110a0:	82 00 63 d0 	add  %g1, 0x3d0, %g1	! 277d0 <ti_jmp_table+0x1cc>
   110a4:	c2 00 60 00 	ld  [ %g1 ], %g1
   110a8:	81 c0 40 00 	jmp  %g1
   110ac:	01 00 00 00 	nop 

00000000000110b0 <_pthread_attr_getscope>:
   110b0:	03 00 00 9d 	sethi  %hi(0x27400), %g1
   110b4:	82 00 63 d4 	add  %g1, 0x3d4, %g1	! 277d4 <ti_jmp_table+0x1d0>
   110b8:	c2 00 60 00 	ld  [ %g1 ], %g1
   110bc:	81 c0 40 00 	jmp  %g1
   110c0:	01 00 00 00 	nop 

00000000000110c4 <_pthread_attr_getstackaddr>:
   110c4:	03 00 00 9d 	sethi  %hi(0x27400), %g1
   110c8:	82 00 63 d8 	add  %g1, 0x3d8, %g1	! 277d8 <ti_jmp_table+0x1d4>
   110cc:	c2 00 60 00 	ld  [ %g1 ], %g1
   110d0:	81 c0 40 00 	jmp  %g1
   110d4:	01 00 00 00 	nop 

00000000000110d8 <_pthread_attr_getstacksize>:
   110d8:	03 00 00 9d 	sethi  %hi(0x27400), %g1
   110dc:	82 00 63 dc 	add  %g1, 0x3dc, %g1	! 277dc <ti_jmp_table+0x1d8>
   110e0:	c2 00 60 00 	ld  [ %g1 ], %g1
   110e4:	81 c0 40 00 	jmp  %g1
   110e8:	01 00 00 00 	nop 

00000000000110ec <_pthread_attr_init>:
   110ec:	03 00 00 9d 	sethi  %hi(0x27400), %g1
   110f0:	82 00 63 e0 	add  %g1, 0x3e0, %g1	! 277e0 <ti_jmp_table+0x1dc>
   110f4:	c2 00 60 00 	ld  [ %g1 ], %g1
   110f8:	81 c0 40 00 	jmp  %g1
   110fc:	01 00 00 00 	nop 

0000000000011100 <_pthread_attr_setdetachstate>:
   11100:	03 00 00 9d 	sethi  %hi(0x27400), %g1
   11104:	82 00 63 e4 	add  %g1, 0x3e4, %g1	! 277e4 <ti_jmp_table+0x1e0>
   11108:	c2 00 60 00 	ld  [ %g1 ], %g1
   1110c:	81 c0 40 00 	jmp  %g1
   11110:	01 00 00 00 	nop 

0000000000011114 <_pthread_attr_setinheritsched>:
   11114:	03 00 00 9d 	sethi  %hi(0x27400), %g1
   11118:	82 00 63 e8 	add  %g1, 0x3e8, %g1	! 277e8 <ti_jmp_table+0x1e4>
   1111c:	c2 00 60 00 	ld  [ %g1 ], %g1
   11120:	81 c0 40 00 	jmp  %g1
   11124:	01 00 00 00 	nop 

0000000000011128 <_pthread_attr_setschedparam>:
   11128:	03 00 00 9d 	sethi  %hi(0x27400), %g1
   1112c:	82 00 63 ec 	add  %g1, 0x3ec, %g1	! 277ec <ti_jmp_table+0x1e8>
   11130:	c2 00 60 00 	ld  [ %g1 ], %g1
   11134:	81 c0 40 00 	jmp  %g1
   11138:	01 00 00 00 	nop 

000000000001113c <_pthread_attr_setschedpolicy>:
   1113c:	03 00 00 9d 	sethi  %hi(0x27400), %g1
   11140:	82 00 63 f0 	add  %g1, 0x3f0, %g1	! 277f0 <ti_jmp_table+0x1ec>
   11144:	c2 00 60 00 	ld  [ %g1 ], %g1
   11148:	81 c0 40 00 	jmp  %g1
   1114c:	01 00 00 00 	nop 

0000000000011150 <_pthread_attr_setscope>:
   11150:	03 00 00 9d 	sethi  %hi(0x27400), %g1
   11154:	82 00 63 f4 	add  %g1, 0x3f4, %g1	! 277f4 <ti_jmp_table+0x1f0>
   11158:	c2 00 60 00 	ld  [ %g1 ], %g1
   1115c:	81 c0 40 00 	jmp  %g1
   11160:	01 00 00 00 	nop 

0000000000011164 <_pthread_attr_setstackaddr>:
   11164:	03 00 00 9d 	sethi  %hi(0x27400), %g1
   11168:	82 00 63 f8 	add  %g1, 0x3f8, %g1	! 277f8 <ti_jmp_table+0x1f4>
   1116c:	c2 00 60 00 	ld  [ %g1 ], %g1
   11170:	81 c0 40 00 	jmp  %g1
   11174:	01 00 00 00 	nop 

0000000000011178 <_pthread_attr_setstacksize>:
   11178:	03 00 00 9d 	sethi  %hi(0x27400), %g1
   1117c:	82 00 63 fc 	add  %g1, 0x3fc, %g1	! 277fc <ti_jmp_table+0x1f8>
   11180:	c2 00 60 00 	ld  [ %g1 ], %g1
   11184:	81 c0 40 00 	jmp  %g1
   11188:	01 00 00 00 	nop 

000000000001118c <_pthread_cancel>:
   1118c:	03 00 00 9e 	sethi  %hi(0x27800), %g1
   11190:	82 00 60 00 	add  %g1, 0, %g1	! 27800 <ti_jmp_table+0x1fc>
   11194:	c2 00 60 00 	ld  [ %g1 ], %g1
   11198:	81 c0 40 00 	jmp  %g1
   1119c:	01 00 00 00 	nop 

00000000000111a0 <__pthread_cleanup_pop>:
   111a0:	03 00 00 9e 	sethi  %hi(0x27800), %g1
   111a4:	82 00 60 04 	add  %g1, 4, %g1	! 27804 <ti_jmp_table+0x200>
   111a8:	c2 00 60 00 	ld  [ %g1 ], %g1
   111ac:	81 c0 40 00 	jmp  %g1
   111b0:	01 00 00 00 	nop 

00000000000111b4 <__pthread_cleanup_push>:
   111b4:	03 00 00 9e 	sethi  %hi(0x27800), %g1
   111b8:	82 00 60 08 	add  %g1, 8, %g1	! 27808 <ti_jmp_table+0x204>
   111bc:	c2 00 60 00 	ld  [ %g1 ], %g1
   111c0:	81 c0 40 00 	jmp  %g1
   111c4:	01 00 00 00 	nop 

00000000000111c8 <_pthread_create>:
   111c8:	03 00 00 9e 	sethi  %hi(0x27800), %g1
   111cc:	82 00 60 0c 	add  %g1, 0xc, %g1	! 2780c <ti_jmp_table+0x208>
   111d0:	c2 00 60 00 	ld  [ %g1 ], %g1
   111d4:	81 c0 40 00 	jmp  %g1
   111d8:	01 00 00 00 	nop 

00000000000111dc <_pthread_detach>:
   111dc:	03 00 00 9e 	sethi  %hi(0x27800), %g1
   111e0:	82 00 60 10 	add  %g1, 0x10, %g1	! 27810 <ti_jmp_table+0x20c>
   111e4:	c2 00 60 00 	ld  [ %g1 ], %g1
   111e8:	81 c0 40 00 	jmp  %g1
   111ec:	01 00 00 00 	nop 

00000000000111f0 <_pthread_equal>:
   111f0:	03 00 00 9e 	sethi  %hi(0x27800), %g1
   111f4:	82 00 60 14 	add  %g1, 0x14, %g1	! 27814 <ti_jmp_table+0x210>
   111f8:	c2 00 60 00 	ld  [ %g1 ], %g1
   111fc:	81 c0 40 00 	jmp  %g1
   11200:	01 00 00 00 	nop 

0000000000011204 <_pthread_exit>:
   11204:	03 00 00 9e 	sethi  %hi(0x27800), %g1
   11208:	82 00 60 18 	add  %g1, 0x18, %g1	! 27818 <ti_jmp_table+0x214>
   1120c:	c2 00 60 00 	ld  [ %g1 ], %g1
   11210:	81 c0 40 00 	jmp  %g1
   11214:	01 00 00 00 	nop 

0000000000011218 <_pthread_getschedparam>:
   11218:	03 00 00 9e 	sethi  %hi(0x27800), %g1
   1121c:	82 00 60 1c 	add  %g1, 0x1c, %g1	! 2781c <ti_jmp_table+0x218>
   11220:	c2 00 60 00 	ld  [ %g1 ], %g1
   11224:	81 c0 40 00 	jmp  %g1
   11228:	01 00 00 00 	nop 

000000000001122c <_pthread_getspecific>:
   1122c:	03 00 00 9e 	sethi  %hi(0x27800), %g1
   11230:	82 00 60 20 	add  %g1, 0x20, %g1	! 27820 <ti_jmp_table+0x21c>
   11234:	c2 00 60 00 	ld  [ %g1 ], %g1
   11238:	81 c0 40 00 	jmp  %g1
   1123c:	01 00 00 00 	nop 

0000000000011240 <_pthread_join>:
   11240:	03 00 00 9e 	sethi  %hi(0x27800), %g1
   11244:	82 00 60 24 	add  %g1, 0x24, %g1	! 27824 <ti_jmp_table+0x220>
   11248:	c2 00 60 00 	ld  [ %g1 ], %g1
   1124c:	81 c0 40 00 	jmp  %g1
   11250:	01 00 00 00 	nop 

0000000000011254 <_pthread_key_create>:
   11254:	03 00 00 9e 	sethi  %hi(0x27800), %g1
   11258:	82 00 60 28 	add  %g1, 0x28, %g1	! 27828 <ti_jmp_table+0x224>
   1125c:	c2 00 60 00 	ld  [ %g1 ], %g1
   11260:	81 c0 40 00 	jmp  %g1
   11264:	01 00 00 00 	nop 

0000000000011268 <_pthread_key_delete>:
   11268:	03 00 00 9e 	sethi  %hi(0x27800), %g1
   1126c:	82 00 60 2c 	add  %g1, 0x2c, %g1	! 2782c <ti_jmp_table+0x228>
   11270:	c2 00 60 00 	ld  [ %g1 ], %g1
   11274:	81 c0 40 00 	jmp  %g1
   11278:	01 00 00 00 	nop 

000000000001127c <_pthread_kill>:
   1127c:	03 00 00 9e 	sethi  %hi(0x27800), %g1
   11280:	82 00 60 30 	add  %g1, 0x30, %g1	! 27830 <ti_jmp_table+0x22c>
   11284:	c2 00 60 00 	ld  [ %g1 ], %g1
   11288:	81 c0 40 00 	jmp  %g1
   1128c:	01 00 00 00 	nop 

0000000000011290 <_pthread_once>:
   11290:	03 00 00 9e 	sethi  %hi(0x27800), %g1
   11294:	82 00 60 34 	add  %g1, 0x34, %g1	! 27834 <ti_jmp_table+0x230>
   11298:	c2 00 60 00 	ld  [ %g1 ], %g1
   1129c:	81 c0 40 00 	jmp  %g1
   112a0:	01 00 00 00 	nop 

00000000000112a4 <_pthread_setcancelstate>:
   112a4:	03 00 00 9e 	sethi  %hi(0x27800), %g1
   112a8:	82 00 60 38 	add  %g1, 0x38, %g1	! 27838 <ti_jmp_table+0x234>
   112ac:	c2 00 60 00 	ld  [ %g1 ], %g1
   112b0:	81 c0 40 00 	jmp  %g1
   112b4:	01 00 00 00 	nop 

00000000000112b8 <_pthread_setcanceltype>:
   112b8:	03 00 00 9e 	sethi  %hi(0x27800), %g1
   112bc:	82 00 60 3c 	add  %g1, 0x3c, %g1	! 2783c <ti_jmp_table+0x238>
   112c0:	c2 00 60 00 	ld  [ %g1 ], %g1
   112c4:	81 c0 40 00 	jmp  %g1
   112c8:	01 00 00 00 	nop 

00000000000112cc <_pthread_setschedparam>:
   112cc:	03 00 00 9e 	sethi  %hi(0x27800), %g1
   112d0:	82 00 60 40 	add  %g1, 0x40, %g1	! 27840 <ti_jmp_table+0x23c>
   112d4:	c2 00 60 00 	ld  [ %g1 ], %g1
   112d8:	81 c0 40 00 	jmp  %g1
   112dc:	01 00 00 00 	nop 

00000000000112e0 <_pthread_setspecific>:
   112e0:	03 00 00 9e 	sethi  %hi(0x27800), %g1
   112e4:	82 00 60 44 	add  %g1, 0x44, %g1	! 27844 <ti_jmp_table+0x240>
   112e8:	c2 00 60 00 	ld  [ %g1 ], %g1
   112ec:	81 c0 40 00 	jmp  %g1
   112f0:	01 00 00 00 	nop 

00000000000112f4 <_pthread_testcancel>:
   112f4:	03 00 00 9e 	sethi  %hi(0x27800), %g1
   112f8:	82 00 60 48 	add  %g1, 0x48, %g1	! 27848 <ti_jmp_table+0x244>
   112fc:	c2 00 60 00 	ld  [ %g1 ], %g1
   11300:	81 c0 40 00 	jmp  %g1
   11304:	01 00 00 00 	nop 

0000000000011308 <kill>:
   11308:	03 00 00 9e 	sethi  %hi(0x27800), %g1
   1130c:	82 00 60 4c 	add  %g1, 0x4c, %g1	! 2784c <ti_jmp_table+0x248>
   11310:	c2 00 60 00 	ld  [ %g1 ], %g1
   11314:	81 c0 40 00 	jmp  %g1
   11318:	01 00 00 00 	nop 

000000000001131c <_pthread_attr_getguardsize>:
   1131c:	03 00 00 9e 	sethi  %hi(0x27800), %g1
   11320:	82 00 60 58 	add  %g1, 0x58, %g1	! 27858 <ti_jmp_table+0x254>
   11324:	c2 00 60 00 	ld  [ %g1 ], %g1
   11328:	81 c0 40 00 	jmp  %g1
   1132c:	01 00 00 00 	nop 

0000000000011330 <_pthread_attr_setguardsize>:
   11330:	03 00 00 9e 	sethi  %hi(0x27800), %g1
   11334:	82 00 60 5c 	add  %g1, 0x5c, %g1	! 2785c <ti_jmp_table+0x258>
   11338:	c2 00 60 00 	ld  [ %g1 ], %g1
   1133c:	81 c0 40 00 	jmp  %g1
   11340:	01 00 00 00 	nop 

0000000000011344 <_pthread_getconcurrency>:
   11344:	03 00 00 9e 	sethi  %hi(0x27800), %g1
   11348:	82 00 60 50 	add  %g1, 0x50, %g1	! 27850 <ti_jmp_table+0x24c>
   1134c:	c2 00 60 00 	ld  [ %g1 ], %g1
   11350:	81 c0 40 00 	jmp  %g1
   11354:	01 00 00 00 	nop 

0000000000011358 <_pthread_setconcurrency>:
   11358:	03 00 00 9e 	sethi  %hi(0x27800), %g1
   1135c:	82 00 60 54 	add  %g1, 0x54, %g1	! 27854 <ti_jmp_table+0x250>
   11360:	c2 00 60 00 	ld  [ %g1 ], %g1
   11364:	81 c0 40 00 	jmp  %g1
   11368:	01 00 00 00 	nop 

000000000001136c <_pthread_mutexattr_settype>:
   1136c:	03 00 00 9e 	sethi  %hi(0x27800), %g1
   11370:	82 00 60 64 	add  %g1, 0x64, %g1	! 27864 <ti_jmp_table+0x260>
   11374:	c2 00 60 00 	ld  [ %g1 ], %g1
   11378:	81 c0 40 00 	jmp  %g1
   1137c:	01 00 00 00 	nop 

0000000000011380 <_pthread_mutexattr_gettype>:
   11380:	03 00 00 9e 	sethi  %hi(0x27800), %g1
   11384:	82 00 60 60 	add  %g1, 0x60, %g1	! 27860 <ti_jmp_table+0x25c>
   11388:	c2 00 60 00 	ld  [ %g1 ], %g1
   1138c:	81 c0 40 00 	jmp  %g1
   11390:	01 00 00 00 	nop 

0000000000011394 <_pthread_rwlock_init>:
   11394:	03 00 00 9e 	sethi  %hi(0x27800), %g1
   11398:	82 00 60 68 	add  %g1, 0x68, %g1	! 27868 <ti_jmp_table+0x264>
   1139c:	c2 00 60 00 	ld  [ %g1 ], %g1
   113a0:	81 c0 40 00 	jmp  %g1
   113a4:	01 00 00 00 	nop 

00000000000113a8 <_pthread_rwlock_destroy>:
   113a8:	03 00 00 9e 	sethi  %hi(0x27800), %g1
   113ac:	82 00 60 6c 	add  %g1, 0x6c, %g1	! 2786c <ti_jmp_table+0x268>
   113b0:	c2 00 60 00 	ld  [ %g1 ], %g1
   113b4:	81 c0 40 00 	jmp  %g1
   113b8:	01 00 00 00 	nop 

00000000000113bc <_pthread_rwlock_rdlock>:
   113bc:	03 00 00 9e 	sethi  %hi(0x27800), %g1
   113c0:	82 00 60 80 	add  %g1, 0x80, %g1	! 27880 <ti_jmp_table+0x27c>
   113c4:	c2 00 60 00 	ld  [ %g1 ], %g1
   113c8:	81 c0 40 00 	jmp  %g1
   113cc:	01 00 00 00 	nop 

00000000000113d0 <_pthread_rwlock_tryrdlock>:
   113d0:	03 00 00 9e 	sethi  %hi(0x27800), %g1
   113d4:	82 00 60 84 	add  %g1, 0x84, %g1	! 27884 <ti_jmp_table+0x280>
   113d8:	c2 00 60 00 	ld  [ %g1 ], %g1
   113dc:	81 c0 40 00 	jmp  %g1
   113e0:	01 00 00 00 	nop 

00000000000113e4 <_pthread_rwlock_wrlock>:
   113e4:	03 00 00 9e 	sethi  %hi(0x27800), %g1
   113e8:	82 00 60 88 	add  %g1, 0x88, %g1	! 27888 <ti_jmp_table+0x284>
   113ec:	c2 00 60 00 	ld  [ %g1 ], %g1
   113f0:	81 c0 40 00 	jmp  %g1
   113f4:	01 00 00 00 	nop 

00000000000113f8 <_pthread_rwlock_trywrlock>:
   113f8:	03 00 00 9e 	sethi  %hi(0x27800), %g1
   113fc:	82 00 60 8c 	add  %g1, 0x8c, %g1	! 2788c <ti_jmp_table+0x288>
   11400:	c2 00 60 00 	ld  [ %g1 ], %g1
   11404:	81 c0 40 00 	jmp  %g1
   11408:	01 00 00 00 	nop 

000000000001140c <_pthread_rwlock_unlock>:
   1140c:	03 00 00 9e 	sethi  %hi(0x27800), %g1
   11410:	82 00 60 90 	add  %g1, 0x90, %g1	! 27890 <ti_jmp_table+0x28c>
   11414:	c2 00 60 00 	ld  [ %g1 ], %g1
   11418:	81 c0 40 00 	jmp  %g1
   1141c:	01 00 00 00 	nop 

0000000000011420 <_pthread_rwlockattr_init>:
   11420:	03 00 00 9e 	sethi  %hi(0x27800), %g1
   11424:	82 00 60 70 	add  %g1, 0x70, %g1	! 27870 <ti_jmp_table+0x26c>
   11428:	c2 00 60 00 	ld  [ %g1 ], %g1
   1142c:	81 c0 40 00 	jmp  %g1
   11430:	01 00 00 00 	nop 

0000000000011434 <_pthread_rwlockattr_destroy>:
   11434:	03 00 00 9e 	sethi  %hi(0x27800), %g1
   11438:	82 00 60 74 	add  %g1, 0x74, %g1	! 27874 <ti_jmp_table+0x270>
   1143c:	c2 00 60 00 	ld  [ %g1 ], %g1
   11440:	81 c0 40 00 	jmp  %g1
   11444:	01 00 00 00 	nop 

0000000000011448 <_pthread_rwlockattr_getpshared>:
   11448:	03 00 00 9e 	sethi  %hi(0x27800), %g1
   1144c:	82 00 60 78 	add  %g1, 0x78, %g1	! 27878 <ti_jmp_table+0x274>
   11450:	c2 00 60 00 	ld  [ %g1 ], %g1
   11454:	81 c0 40 00 	jmp  %g1
   11458:	01 00 00 00 	nop 

000000000001145c <_pthread_rwlockattr_setpshared>:
   1145c:	03 00 00 9e 	sethi  %hi(0x27800), %g1
   11460:	82 00 60 7c 	add  %g1, 0x7c, %g1	! 2787c <ti_jmp_table+0x278>
   11464:	c2 00 60 00 	ld  [ %g1 ], %g1
   11468:	81 c0 40 00 	jmp  %g1
   1146c:	01 00 00 00 	nop 

0000000000011470 <getmsg>:
   11470:	03 00 00 9e 	sethi  %hi(0x27800), %g1
   11474:	82 00 60 94 	add  %g1, 0x94, %g1	! 27894 <ti_jmp_table+0x290>
   11478:	c2 00 60 00 	ld  [ %g1 ], %g1
   1147c:	81 c0 40 00 	jmp  %g1
   11480:	01 00 00 00 	nop 

0000000000011484 <getpmsg>:
   11484:	03 00 00 9e 	sethi  %hi(0x27800), %g1
   11488:	82 00 60 98 	add  %g1, 0x98, %g1	! 27898 <ti_jmp_table+0x294>
   1148c:	c2 00 60 00 	ld  [ %g1 ], %g1
   11490:	81 c0 40 00 	jmp  %g1
   11494:	01 00 00 00 	nop 

0000000000011498 <putmsg>:
   11498:	03 00 00 9e 	sethi  %hi(0x27800), %g1
   1149c:	82 00 60 9c 	add  %g1, 0x9c, %g1	! 2789c <ti_jmp_table+0x298>
   114a0:	c2 00 60 00 	ld  [ %g1 ], %g1
   114a4:	81 c0 40 00 	jmp  %g1
   114a8:	01 00 00 00 	nop 

00000000000114ac <__xpg4_putmsg>:
   114ac:	03 00 00 9e 	sethi  %hi(0x27800), %g1
   114b0:	82 00 60 e4 	add  %g1, 0xe4, %g1	! 278e4 <ti_jmp_table+0x2e0>
   114b4:	c2 00 60 00 	ld  [ %g1 ], %g1
   114b8:	81 c0 40 00 	jmp  %g1
   114bc:	01 00 00 00 	nop 

00000000000114c0 <putpmsg>:
   114c0:	03 00 00 9e 	sethi  %hi(0x27800), %g1
   114c4:	82 00 60 a0 	add  %g1, 0xa0, %g1	! 278a0 <ti_jmp_table+0x29c>
   114c8:	c2 00 60 00 	ld  [ %g1 ], %g1
   114cc:	81 c0 40 00 	jmp  %g1
   114d0:	01 00 00 00 	nop 

00000000000114d4 <__xpg4_putpmsg>:
   114d4:	03 00 00 9e 	sethi  %hi(0x27800), %g1
   114d8:	82 00 60 e8 	add  %g1, 0xe8, %g1	! 278e8 <ti_jmp_table+0x2e4>
   114dc:	c2 00 60 00 	ld  [ %g1 ], %g1
   114e0:	81 c0 40 00 	jmp  %g1
   114e4:	01 00 00 00 	nop 

00000000000114e8 <lockf>:
   114e8:	03 00 00 9e 	sethi  %hi(0x27800), %g1
   114ec:	82 00 60 a4 	add  %g1, 0xa4, %g1	! 278a4 <ti_jmp_table+0x2a0>
   114f0:	c2 00 60 00 	ld  [ %g1 ], %g1
   114f4:	81 c0 40 00 	jmp  %g1
   114f8:	01 00 00 00 	nop 

00000000000114fc <msgrcv>:
   114fc:	03 00 00 9e 	sethi  %hi(0x27800), %g1
   11500:	82 00 60 a8 	add  %g1, 0xa8, %g1	! 278a8 <ti_jmp_table+0x2a4>
   11504:	c2 00 60 00 	ld  [ %g1 ], %g1
   11508:	81 c0 40 00 	jmp  %g1
   1150c:	01 00 00 00 	nop 

0000000000011510 <msgsnd>:
   11510:	03 00 00 9e 	sethi  %hi(0x27800), %g1
   11514:	82 00 60 ac 	add  %g1, 0xac, %g1	! 278ac <ti_jmp_table+0x2a8>
   11518:	c2 00 60 00 	ld  [ %g1 ], %g1
   1151c:	81 c0 40 00 	jmp  %g1
   11520:	01 00 00 00 	nop 

0000000000011524 <poll>:
   11524:	03 00 00 9e 	sethi  %hi(0x27800), %g1
   11528:	82 00 60 b0 	add  %g1, 0xb0, %g1	! 278b0 <ti_jmp_table+0x2ac>
   1152c:	c2 00 60 00 	ld  [ %g1 ], %g1
   11530:	81 c0 40 00 	jmp  %g1
   11534:	01 00 00 00 	nop 

0000000000011538 <pread>:
   11538:	03 00 00 9e 	sethi  %hi(0x27800), %g1
   1153c:	82 00 60 b4 	add  %g1, 0xb4, %g1	! 278b4 <ti_jmp_table+0x2b0>
   11540:	c2 00 60 00 	ld  [ %g1 ], %g1
   11544:	81 c0 40 00 	jmp  %g1
   11548:	01 00 00 00 	nop 

000000000001154c <readv>:
   1154c:	03 00 00 9e 	sethi  %hi(0x27800), %g1
   11550:	82 00 60 b8 	add  %g1, 0xb8, %g1	! 278b8 <ti_jmp_table+0x2b4>
   11554:	c2 00 60 00 	ld  [ %g1 ], %g1
   11558:	81 c0 40 00 	jmp  %g1
   1155c:	01 00 00 00 	nop 

0000000000011560 <pwrite>:
   11560:	03 00 00 9e 	sethi  %hi(0x27800), %g1
   11564:	82 00 60 bc 	add  %g1, 0xbc, %g1	! 278bc <ti_jmp_table+0x2b8>
   11568:	c2 00 60 00 	ld  [ %g1 ], %g1
   1156c:	81 c0 40 00 	jmp  %g1
   11570:	01 00 00 00 	nop 

0000000000011574 <writev>:
   11574:	03 00 00 9e 	sethi  %hi(0x27800), %g1
   11578:	82 00 60 c0 	add  %g1, 0xc0, %g1	! 278c0 <ti_jmp_table+0x2bc>
   1157c:	c2 00 60 00 	ld  [ %g1 ], %g1
   11580:	81 c0 40 00 	jmp  %g1
   11584:	01 00 00 00 	nop 

0000000000011588 <select>:
   11588:	03 00 00 9e 	sethi  %hi(0x27800), %g1
   1158c:	82 00 60 c4 	add  %g1, 0xc4, %g1	! 278c4 <ti_jmp_table+0x2c0>
   11590:	c2 00 60 00 	ld  [ %g1 ], %g1
   11594:	81 c0 40 00 	jmp  %g1
   11598:	01 00 00 00 	nop 

000000000001159c <sigpause>:
   1159c:	03 00 00 9e 	sethi  %hi(0x27800), %g1
   115a0:	82 00 60 c8 	add  %g1, 0xc8, %g1	! 278c8 <ti_jmp_table+0x2c4>
   115a4:	c2 00 60 00 	ld  [ %g1 ], %g1
   115a8:	81 c0 40 00 	jmp  %g1
   115ac:	01 00 00 00 	nop 

00000000000115b0 <usleep>:
   115b0:	03 00 00 9e 	sethi  %hi(0x27800), %g1
   115b4:	82 00 60 cc 	add  %g1, 0xcc, %g1	! 278cc <ti_jmp_table+0x2c8>
   115b8:	c2 00 60 00 	ld  [ %g1 ], %g1
   115bc:	81 c0 40 00 	jmp  %g1
   115c0:	01 00 00 00 	nop 

00000000000115c4 <wait3>:
   115c4:	03 00 00 9e 	sethi  %hi(0x27800), %g1
   115c8:	82 00 60 d0 	add  %g1, 0xd0, %g1	! 278d0 <ti_jmp_table+0x2cc>
   115cc:	c2 00 60 00 	ld  [ %g1 ], %g1
   115d0:	81 c0 40 00 	jmp  %g1
   115d4:	01 00 00 00 	nop 

00000000000115d8 <waitid>:
   115d8:	03 00 00 9e 	sethi  %hi(0x27800), %g1
   115dc:	82 00 60 d4 	add  %g1, 0xd4, %g1	! 278d4 <ti_jmp_table+0x2d0>
   115e0:	c2 00 60 00 	ld  [ %g1 ], %g1
   115e4:	81 c0 40 00 	jmp  %g1
   115e8:	01 00 00 00 	nop 

00000000000115ec <lockf64>:
   115ec:	03 00 00 9e 	sethi  %hi(0x27800), %g1
   115f0:	82 00 60 d8 	add  %g1, 0xd8, %g1	! 278d8 <ti_jmp_table+0x2d4>
   115f4:	c2 00 60 00 	ld  [ %g1 ], %g1
   115f8:	81 c0 40 00 	jmp  %g1
   115fc:	01 00 00 00 	nop 

0000000000011600 <pread64>:
   11600:	03 00 00 9e 	sethi  %hi(0x27800), %g1
   11604:	82 00 60 dc 	add  %g1, 0xdc, %g1	! 278dc <ti_jmp_table+0x2d8>
   11608:	c2 00 60 00 	ld  [ %g1 ], %g1
   1160c:	81 c0 40 00 	jmp  %g1
   11610:	01 00 00 00 	nop 

0000000000011614 <pwrite64>:
   11614:	03 00 00 9e 	sethi  %hi(0x27800), %g1
   11618:	82 00 60 e0 	add  %g1, 0xe0, %g1	! 278e0 <ti_jmp_table+0x2dc>
   1161c:	c2 00 60 00 	ld  [ %g1 ], %g1
   11620:	81 c0 40 00 	jmp  %g1
   11624:	01 00 00 00 	nop 

0000000000011628 <_sigsetjmp>:
   11628:	9d e3 bd d0 	save  %sp, -560, %sp
   1162c:	f2 27 a0 48 	st  %i1, [ %fp + 0x48 ]
   11630:	40 00 00 55 	call  11784 <_getsp>
   11634:	f0 27 bf fc 	st  %i0, [ %fp + -4 ]
   11638:	92 10 20 03 	mov  3, %o1
   1163c:	d2 27 be 38 	st  %o1, [ %fp + -456 ]
   11640:	d0 27 bf f8 	st  %o0, [ %fp + -8 ]
   11644:	40 00 11 34 	call  15b14 <__getcontext>
   11648:	90 07 be 38 	add  %fp, -456, %o0
   1164c:	d4 07 bf fc 	ld  [ %fp + -4 ], %o2
   11650:	90 10 20 00 	clr  %o0
   11654:	d0 22 a0 00 	st  %o0, [ %o2 ]
   11658:	d0 07 bf f8 	ld  [ %fp + -8 ], %o0
   1165c:	d2 02 20 38 	ld  [ %o0 + 0x38 ], %o1
   11660:	d2 22 a0 04 	st  %o1, [ %o2 + 4 ]
   11664:	d0 02 20 3c 	ld  [ %o0 + 0x3c ], %o0
   11668:	90 02 20 08 	add  %o0, 8, %o0
   1166c:	d0 22 a0 08 	st  %o0, [ %o2 + 8 ]
   11670:	d0 07 be 50 	ld  [ %fp + -432 ], %o0
   11674:	d0 22 a0 40 	st  %o0, [ %o2 + 0x40 ]
   11678:	d0 07 be 54 	ld  [ %fp + -428 ], %o0
   1167c:	d0 22 a0 44 	st  %o0, [ %o2 + 0x44 ]
   11680:	d0 07 be 58 	ld  [ %fp + -424 ], %o0
   11684:	d0 22 a0 48 	st  %o0, [ %o2 + 0x48 ]
   11688:	d0 07 a0 48 	ld  [ %fp + 0x48 ], %o0
   1168c:	80 a2 20 00 	cmp  %o0, 0
   11690:	02 80 00 0d 	be  116c4 <_sigsetjmp+0x9c>
   11694:	01 00 00 00 	nop 
   11698:	d0 02 a0 00 	ld  [ %o2 ], %o0
   1169c:	90 12 20 01 	or  %o0, 1, %o0
   116a0:	d0 22 a0 00 	st  %o0, [ %o2 ]
   116a4:	d0 07 be 40 	ld  [ %fp + -448 ], %o0
   116a8:	d0 22 a0 30 	st  %o0, [ %o2 + 0x30 ]
   116ac:	d0 07 be 44 	ld  [ %fp + -444 ], %o0
   116b0:	d0 22 a0 34 	st  %o0, [ %o2 + 0x34 ]
   116b4:	d0 07 be 48 	ld  [ %fp + -440 ], %o0
   116b8:	d0 22 a0 38 	st  %o0, [ %o2 + 0x38 ]
   116bc:	d0 07 be 4c 	ld  [ %fp + -436 ], %o0
   116c0:	d0 22 a0 3c 	st  %o0, [ %o2 + 0x3c ]
   116c4:	81 c7 e0 08 	ret 
   116c8:	91 e8 20 00 	restore  %g0, 0, %o0

00000000000116cc <_libc_siglongjmp>:
   116cc:	9d e3 bd d0 	save  %sp, -560, %sp
   116d0:	90 07 be 60 	add  %fp, -416, %o0
   116d4:	d0 27 bf fc 	st  %o0, [ %fp + -4 ]
   116d8:	90 10 20 2f 	mov  0x2f, %o0
   116dc:	f0 27 be 34 	st  %i0, [ %fp + -460 ]
   116e0:	f2 27 a0 48 	st  %i1, [ %fp + 0x48 ]
   116e4:	d0 27 be 38 	st  %o0, [ %fp + -456 ]
   116e8:	40 00 11 0b 	call  15b14 <__getcontext>
   116ec:	90 07 be 38 	add  %fp, -456, %o0
   116f0:	d4 07 be 34 	ld  [ %fp + -460 ], %o2
   116f4:	d0 02 a0 40 	ld  [ %o2 + 0x40 ], %o0
   116f8:	d0 27 be 50 	st  %o0, [ %fp + -432 ]
   116fc:	d0 02 a0 44 	ld  [ %o2 + 0x44 ], %o0
   11700:	d0 27 be 54 	st  %o0, [ %fp + -428 ]
   11704:	d0 02 a0 48 	ld  [ %o2 + 0x48 ], %o0
   11708:	d0 27 be 58 	st  %o0, [ %fp + -424 ]
   1170c:	d0 02 a0 00 	ld  [ %o2 ], %o0
   11710:	80 8a 20 01 	btst  1, %o0
   11714:	22 80 00 0b 	be,a   11740 <_libc_siglongjmp+0x74>
   11718:	d0 02 a0 08 	ld  [ %o2 + 8 ], %o0
   1171c:	d0 02 a0 30 	ld  [ %o2 + 0x30 ], %o0
   11720:	d0 27 be 40 	st  %o0, [ %fp + -448 ]
   11724:	d0 02 a0 34 	ld  [ %o2 + 0x34 ], %o0
   11728:	d0 27 be 44 	st  %o0, [ %fp + -444 ]
   1172c:	d0 02 a0 38 	ld  [ %o2 + 0x38 ], %o0
   11730:	d0 27 be 48 	st  %o0, [ %fp + -440 ]
   11734:	d0 02 a0 3c 	ld  [ %o2 + 0x3c ], %o0
   11738:	d0 27 be 4c 	st  %o0, [ %fp + -436 ]
   1173c:	d0 02 a0 08 	ld  [ %o2 + 8 ], %o0
   11740:	d2 07 bf fc 	ld  [ %fp + -4 ], %o1
   11744:	d0 22 60 04 	st  %o0, [ %o1 + 4 ]
   11748:	90 02 20 04 	add  %o0, 4, %o0
   1174c:	d0 22 60 08 	st  %o0, [ %o1 + 8 ]
   11750:	d0 02 a0 04 	ld  [ %o2 + 4 ], %o0
   11754:	d0 22 60 44 	st  %o0, [ %o1 + 0x44 ]
   11758:	d0 07 a0 48 	ld  [ %fp + 0x48 ], %o0
   1175c:	80 a2 20 00 	cmp  %o0, 0
   11760:	22 80 00 04 	be,a   11770 <_libc_siglongjmp+0xa4>
   11764:	90 10 20 01 	mov  1, %o0
   11768:	10 80 00 03 	b  11774 <_libc_siglongjmp+0xa8>
   1176c:	d0 22 60 2c 	st  %o0, [ %o1 + 0x2c ]
   11770:	d0 22 60 2c 	st  %o0, [ %o1 + 0x2c ]
   11774:	40 00 10 eb 	call  15b20 <_setcontext>
   11778:	90 07 be 38 	add  %fp, -456, %o0
   1177c:	81 c7 e0 08 	ret 
   11780:	81 e8 00 00 	restore 

0000000000011784 <_getsp>:
   11784:	81 c3 e0 08 	retl 
   11788:	90 00 00 0e 	add  %g0, %sp, %o0

000000000001178c <_msync>:
   1178c:	96 10 00 0a 	mov  %o2, %o3
   11790:	82 10 00 0f 	mov  %o7, %g1
   11794:	94 10 20 01 	mov  1, %o2
   11798:	98 10 20 00 	clr  %o4
   1179c:	9a 10 20 00 	clr  %o5
   117a0:	40 00 0f ac 	call  15650 <_memcntl>
   117a4:	9e 10 00 01 	mov  %g1, %o7

00000000000117a8 <_select>:
   117a8:	9d e3 bf 88 	save  %sp, -120, %sp
   117ac:	ae 10 3f ff 	mov  -1, %l7
   117b0:	80 a6 24 00 	cmp  %i0, 0x400
   117b4:	f6 27 bf f0 	st  %i3, [ %fp + -16 ]
   117b8:	ee 27 bf ec 	st  %l7, [ %fp + -20 ]
   117bc:	18 80 01 72 	bgu  11d84 <_select+0x5dc>
   117c0:	91 2e 20 03 	sll  %i0, 3, %o0
   117c4:	a0 10 00 19 	mov  %i1, %l0
   117c8:	90 02 20 07 	add  %o0, 7, %o0
   117cc:	90 0a 3f f8 	and  %o0, -8, %o0
   117d0:	80 a7 20 00 	cmp  %i4, 0
   117d4:	9c 23 80 08 	sub  %sp, %o0, %sp
   117d8:	90 03 a0 60 	add  %sp, 0x60, %o0
   117dc:	ba 10 00 08 	mov  %o0, %i5
   117e0:	a6 10 00 08 	mov  %o0, %l3
   117e4:	02 80 00 1e 	be  1185c <_select+0xb4>
   117e8:	94 10 00 1c 	mov  %i4, %o2
   117ec:	d2 07 20 04 	ld  [ %i4 + 4 ], %o1
   117f0:	80 a2 60 00 	cmp  %o1, 0
   117f4:	06 80 00 14 	bl  11844 <_select+0x9c>
   117f8:	11 00 03 d0 	sethi  %hi(0xf4000), %o0
   117fc:	90 02 22 40 	add  %o0, 0x240, %o0	! f4240 <_end+0xcc3ac>
   11800:	80 a2 40 08 	cmp  %o1, %o0
   11804:	16 80 00 10 	bge  11844 <_select+0x9c>
   11808:	01 00 00 00 	nop 
   1180c:	d2 07 20 00 	ld  [ %i4 ], %o1
   11810:	80 a2 60 00 	cmp  %o1, 0
   11814:	06 80 00 06 	bl  1182c <_select+0x84>
   11818:	11 01 7d 78 	sethi  %hi(0x5f5e000), %o0
   1181c:	90 02 21 00 	add  %o0, 0x100, %o0	! 5f5e100 <_end+0x5f3626c>
   11820:	80 a2 40 08 	cmp  %o1, %o0
   11824:	04 80 00 0f 	ble  11860 <_select+0xb8>
   11828:	b2 10 20 00 	clr  %i1
   1182c:	40 00 10 70 	call  159ec <___errno>
   11830:	01 00 00 00 	nop 
   11834:	92 10 20 16 	mov  0x16, %o1	! 16 <_ld_libc+0x16>
   11838:	d2 22 20 00 	st  %o1, [ %o0 ]
   1183c:	81 c7 e0 08 	ret 
   11840:	91 e8 3f ff 	restore  %g0, -1, %o0
   11844:	40 00 10 6a 	call  159ec <___errno>
   11848:	01 00 00 00 	nop 
   1184c:	92 10 20 16 	mov  0x16, %o1	! 16 <_ld_libc+0x16>
   11850:	d2 22 20 00 	st  %o1, [ %o0 ]
   11854:	81 c7 e0 08 	ret 
   11858:	91 e8 3f ff 	restore  %g0, -1, %o0
   1185c:	b2 10 20 00 	clr  %i1
   11860:	b8 10 00 10 	mov  %l0, %i4
   11864:	80 a4 20 00 	cmp  %l0, 0
   11868:	12 80 00 04 	bne  11878 <_select+0xd0>
   1186c:	b6 10 00 1a 	mov  %i2, %i3
   11870:	11 00 00 9e 	sethi  %hi(0x27800), %o0
   11874:	b8 02 20 ec 	add  %o0, 0xec, %i4	! 278ec <ti_jmp_table+0x2e8>
   11878:	80 a6 a0 00 	cmp  %i2, 0
   1187c:	32 80 00 05 	bne,a   11890 <_select+0xe8>
   11880:	d0 07 bf f0 	ld  [ %fp + -16 ], %o0
   11884:	11 00 00 9e 	sethi  %hi(0x27800), %o0
   11888:	b6 02 20 ec 	add  %o0, 0xec, %i3	! 278ec <ti_jmp_table+0x2e8>
   1188c:	d0 07 bf f0 	ld  [ %fp + -16 ], %o0
   11890:	b4 10 00 08 	mov  %o0, %i2
   11894:	80 a2 20 00 	cmp  %o0, 0
   11898:	12 80 00 04 	bne  118a8 <_select+0x100>
   1189c:	a4 10 00 1c 	mov  %i4, %l2
   118a0:	11 00 00 9e 	sethi  %hi(0x27800), %o0
   118a4:	b4 02 20 ec 	add  %o0, 0xec, %i2	! 278ec <ti_jmp_table+0x2e8>
   118a8:	a2 10 00 1b 	mov  %i3, %l1
   118ac:	a0 10 00 1a 	mov  %i2, %l0
   118b0:	80 a6 20 00 	cmp  %i0, 0
   118b4:	04 80 00 35 	ble  11988 <_select+0x1e0>
   118b8:	96 10 20 00 	clr  %o3
   118bc:	d0 04 a0 00 	ld  [ %l2 ], %o0
   118c0:	d2 04 60 00 	ld  [ %l1 ], %o1
   118c4:	90 12 00 09 	or  %o0, %o1, %o0
   118c8:	d2 04 20 00 	ld  [ %l0 ], %o1
   118cc:	98 92 00 09 	orcc  %o0, %o1, %o4
   118d0:	02 80 00 27 	be  1196c <_select+0x1c4>
   118d4:	9a 10 20 01 	mov  1, %o5
   118d8:	92 10 20 00 	clr  %o1
   118dc:	80 8b 20 01 	btst  1, %o4
   118e0:	22 80 00 1e 	be,a   11958 <_select+0x1b0>
   118e4:	92 02 60 01 	inc  %o1
   118e8:	90 02 c0 09 	add  %o3, %o1, %o0
   118ec:	80 a2 00 18 	cmp  %o0, %i0
   118f0:	16 80 00 26 	bge  11988 <_select+0x1e0>
   118f4:	d0 24 e0 00 	st  %o0, [ %l3 ]
   118f8:	c0 34 e0 04 	clrh  [ %l3 + 4 ]
   118fc:	d0 04 a0 00 	ld  [ %l2 ], %o0
   11900:	80 8a 00 0d 	btst  %o0, %o5
   11904:	22 80 00 06 	be,a   1191c <_select+0x174>
   11908:	d0 04 60 00 	ld  [ %l1 ], %o0
   1190c:	d0 54 e0 04 	ldsh  [ %l3 + 4 ], %o0
   11910:	90 12 20 40 	or  %o0, 0x40, %o0
   11914:	d0 34 e0 04 	sth  %o0, [ %l3 + 4 ]
   11918:	d0 04 60 00 	ld  [ %l1 ], %o0
   1191c:	80 8a 00 0d 	btst  %o0, %o5
   11920:	22 80 00 06 	be,a   11938 <_select+0x190>
   11924:	d0 04 20 00 	ld  [ %l0 ], %o0
   11928:	d0 54 e0 04 	ldsh  [ %l3 + 4 ], %o0
   1192c:	90 12 20 04 	or  %o0, 4, %o0
   11930:	d0 34 e0 04 	sth  %o0, [ %l3 + 4 ]
   11934:	d0 04 20 00 	ld  [ %l0 ], %o0
   11938:	80 8a 00 0d 	btst  %o0, %o5
   1193c:	22 80 00 06 	be,a   11954 <_select+0x1ac>
   11940:	a6 04 e0 08 	add  %l3, 8, %l3
   11944:	d0 54 e0 04 	ldsh  [ %l3 + 4 ], %o0
   11948:	90 12 20 80 	or  %o0, 0x80, %o0
   1194c:	d0 34 e0 04 	sth  %o0, [ %l3 + 4 ]
   11950:	a6 04 e0 08 	add  %l3, 8, %l3
   11954:	92 02 60 01 	inc  %o1
   11958:	99 33 20 01 	srl  %o4, 1, %o4
   1195c:	9b 2b 60 01 	sll  %o5, 1, %o5
   11960:	80 a3 20 00 	cmp  %o4, 0
   11964:	12 bf ff df 	bne  118e0 <_select+0x138>
   11968:	80 8b 20 01 	btst  1, %o4
   1196c:	96 02 e0 20 	add  %o3, 0x20, %o3
   11970:	a4 04 a0 04 	add  %l2, 4, %l2
   11974:	a2 04 60 04 	add  %l1, 4, %l1
   11978:	a0 04 20 04 	add  %l0, 4, %l0
   1197c:	80 a2 c0 18 	cmp  %o3, %i0
   11980:	26 bf ff d0 	bl,a   118c0 <_select+0x118>
   11984:	d0 04 a0 00 	ld  [ %l2 ], %o0
   11988:	80 a2 a0 00 	cmp  %o2, 0
   1198c:	12 80 00 04 	bne  1199c <_select+0x1f4>
   11990:	a8 10 3f ff 	mov  -1, %l4
   11994:	10 80 00 2f 	b  11a50 <_select+0x2a8>
   11998:	90 24 c0 1d 	sub  %l3, %i5, %o0
   1199c:	11 00 08 31 	sethi  %hi(0x20c400), %o0
   119a0:	ec 02 a0 00 	ld  [ %o2 ], %l6
   119a4:	90 02 20 9b 	add  %o0, 0x9b, %o0
   119a8:	80 a5 80 08 	cmp  %l6, %o0
   119ac:	04 80 00 05 	ble  119c0 <_select+0x218>
   119b0:	11 1f ff ff 	sethi  %hi(0x7ffffc00), %o0
   119b4:	a8 02 23 ff 	add  %o0, 0x3ff, %l4	! 7fffffff <_end+0x7ffd816b>
   119b8:	10 80 00 26 	b  11a50 <_select+0x2a8>
   119bc:	90 24 c0 1d 	sub  %l3, %i5, %o0
   119c0:	ea 02 a0 04 	ld  [ %o2 + 4 ], %l5
   119c4:	13 04 18 93 	sethi  %hi(0x10624c00), %o1
   119c8:	92 02 61 d3 	add  %o1, 0x1d3, %o1	! 10624dd3 <_end+0x105fcf3f>
   119cc:	90 10 00 15 	mov  %l5, %o0
   119d0:	40 00 0a 62 	call  14358 <.mul>
   119d4:	d2 27 bf f8 	st  %o1, [ %fp + -8 ]
   119d8:	91 3d 60 1f 	sra  %l5, 0x1f, %o0
   119dc:	d0 27 bf f4 	st  %o0, [ %fp + -12 ]
   119e0:	95 3a 60 06 	sra  %o1, 6, %o2
   119e4:	c0 27 bf f0 	clr  [ %fp + -16 ]
   119e8:	94 22 80 08 	sub  %o2, %o0, %o2
   119ec:	97 2a a0 05 	sll  %o2, 5, %o3
   119f0:	96 22 c0 0a 	sub  %o3, %o2, %o3
   119f4:	97 2a e0 02 	sll  %o3, 2, %o3
   119f8:	94 02 80 0b 	add  %o2, %o3, %o2
   119fc:	95 2a a0 03 	sll  %o2, 3, %o2
   11a00:	80 a5 40 0a 	cmp  %l5, %o2
   11a04:	02 80 00 05 	be  11a18 <_select+0x270>
   11a08:	90 10 00 15 	mov  %l5, %o0
   11a0c:	90 10 20 01 	mov  1, %o0
   11a10:	d0 27 bf f0 	st  %o0, [ %fp + -16 ]
   11a14:	90 10 00 15 	mov  %l5, %o0
   11a18:	40 00 0a 50 	call  14358 <.mul>
   11a1c:	d2 07 bf f8 	ld  [ %fp + -8 ], %o1
   11a20:	d6 07 bf f4 	ld  [ %fp + -12 ], %o3
   11a24:	95 3a 60 06 	sra  %o1, 6, %o2
   11a28:	d0 07 bf f0 	ld  [ %fp + -16 ], %o0
   11a2c:	94 22 80 0b 	sub  %o2, %o3, %o2
   11a30:	97 2d a0 05 	sll  %l6, 5, %o3
   11a34:	96 22 c0 16 	sub  %o3, %l6, %o3
   11a38:	97 2a e0 02 	sll  %o3, 2, %o3
   11a3c:	96 05 80 0b 	add  %l6, %o3, %o3
   11a40:	97 2a e0 03 	sll  %o3, 3, %o3
   11a44:	94 02 c0 0a 	add  %o3, %o2, %o2
   11a48:	a8 02 80 08 	add  %o2, %o0, %l4
   11a4c:	90 24 c0 1d 	sub  %l3, %i5, %o0
   11a50:	93 3a 20 1f 	sra  %o0, 0x1f, %o1
   11a54:	92 0a 60 07 	and  %o1, 7, %o1
   11a58:	90 02 00 09 	add  %o0, %o1, %o0
   11a5c:	a7 3a 20 03 	sra  %o0, 3, %l3
   11a60:	90 10 00 1d 	mov  %i5, %o0
   11a64:	92 10 00 13 	mov  %l3, %o1
   11a68:	94 10 00 14 	mov  %l4, %o2
   11a6c:	40 00 0f 14 	call  156bc <_poll>
   11a70:	01 00 00 00 	nop 
   11a74:	90 90 00 08 	orcc  %g0, %o0, %o0
   11a78:	d0 27 bf f0 	st  %o0, [ %fp + -16 ]
   11a7c:	16 80 00 0b 	bge  11aa8 <_select+0x300>
   11a80:	01 00 00 00 	nop 
   11a84:	40 00 0f da 	call  159ec <___errno>
   11a88:	01 00 00 00 	nop 
   11a8c:	d2 02 20 00 	ld  [ %o0 ], %o1
   11a90:	80 a2 60 0b 	cmp  %o1, 0xb
   11a94:	02 bf ff f4 	be  11a64 <_select+0x2bc>
   11a98:	90 10 00 1d 	mov  %i5, %o0
   11a9c:	d0 07 bf f0 	ld  [ %fp + -16 ], %o0
   11aa0:	81 c7 e0 08 	ret 
   11aa4:	91 e8 00 08 	restore  %g0, %o0, %o0
   11aa8:	12 80 00 2f 	bne  11b64 <_select+0x3bc>
   11aac:	03 00 00 9e 	sethi  %hi(0x27800), %g1
   11ab0:	92 10 00 1c 	mov  %i4, %o1
   11ab4:	90 00 60 ec 	add  %g1, 0xec, %o0
   11ab8:	80 a7 00 08 	cmp  %i4, %o0
   11abc:	02 80 00 0c 	be  11aec <_select+0x344>
   11ac0:	90 00 60 ec 	add  %g1, 0xec, %o0
   11ac4:	80 a6 20 00 	cmp  %i0, 0
   11ac8:	04 80 00 08 	ble  11ae8 <_select+0x340>
   11acc:	90 10 20 00 	clr  %o0
   11ad0:	f2 22 60 00 	st  %i1, [ %o1 ]
   11ad4:	90 02 20 20 	add  %o0, 0x20, %o0
   11ad8:	92 02 60 04 	add  %o1, 4, %o1
   11adc:	80 a2 00 18 	cmp  %o0, %i0
   11ae0:	26 bf ff fd 	bl,a   11ad4 <_select+0x32c>
   11ae4:	f2 22 60 00 	st  %i1, [ %o1 ]
   11ae8:	90 00 60 ec 	add  %g1, 0xec, %o0
   11aec:	80 a6 c0 08 	cmp  %i3, %o0
   11af0:	02 80 00 0d 	be  11b24 <_select+0x37c>
   11af4:	90 00 60 ec 	add  %g1, 0xec, %o0
   11af8:	80 a6 20 00 	cmp  %i0, 0
   11afc:	04 80 00 09 	ble  11b20 <_select+0x378>
   11b00:	90 10 20 00 	clr  %o0
   11b04:	92 10 00 1b 	mov  %i3, %o1
   11b08:	f2 22 60 00 	st  %i1, [ %o1 ]
   11b0c:	90 02 20 20 	add  %o0, 0x20, %o0
   11b10:	92 02 60 04 	add  %o1, 4, %o1
   11b14:	80 a2 00 18 	cmp  %o0, %i0
   11b18:	26 bf ff fd 	bl,a   11b0c <_select+0x364>
   11b1c:	f2 22 60 00 	st  %i1, [ %o1 ]
   11b20:	90 00 60 ec 	add  %g1, 0xec, %o0
   11b24:	80 a6 80 08 	cmp  %i2, %o0
   11b28:	22 80 00 9c 	be,a   11d98 <_select+0x5f0>
   11b2c:	90 10 20 00 	clr  %o0
   11b30:	90 10 20 00 	clr  %o0
   11b34:	80 a6 20 00 	cmp  %i0, 0
   11b38:	24 80 00 98 	ble,a   11d98 <_select+0x5f0>
   11b3c:	90 10 20 00 	clr  %o0
   11b40:	92 10 00 1a 	mov  %i2, %o1
   11b44:	f2 22 60 00 	st  %i1, [ %o1 ]
   11b48:	90 02 20 20 	add  %o0, 0x20, %o0
   11b4c:	92 02 60 04 	add  %o1, 4, %o1
   11b50:	80 a2 00 18 	cmp  %o0, %i0
   11b54:	26 bf ff fd 	bl,a   11b48 <_select+0x3a0>
   11b58:	f2 22 60 00 	st  %i1, [ %o1 ]
   11b5c:	81 c7 e0 08 	ret 
   11b60:	91 e8 20 00 	restore  %g0, 0, %o0
   11b64:	90 10 00 13 	mov  %l3, %o0
   11b68:	92 10 00 1d 	mov  %i5, %o1
   11b6c:	80 a2 20 00 	cmp  %o0, 0
   11b70:	04 80 00 13 	ble  11bbc <_select+0x414>
   11b74:	94 24 e0 01 	sub  %l3, 1, %o2
   11b78:	d0 52 60 06 	ldsh  [ %o1 + 6 ], %o0
   11b7c:	80 8a 20 20 	btst  0x20, %o0
   11b80:	12 80 00 09 	bne  11ba4 <_select+0x3fc>
   11b84:	01 00 00 00 	nop 
   11b88:	80 90 00 0a 	tst  %o2
   11b8c:	92 02 60 08 	add  %o1, 8, %o1
   11b90:	94 22 a0 01 	dec  %o2
   11b94:	34 bf ff fa 	bg,a   11b7c <_select+0x3d4>
   11b98:	d0 52 60 06 	ldsh  [ %o1 + 6 ], %o0
   11b9c:	10 80 00 09 	b  11bc0 <_select+0x418>
   11ba0:	9e 10 20 00 	clr  %o7
   11ba4:	40 00 0f 92 	call  159ec <___errno>
   11ba8:	01 00 00 00 	nop 
   11bac:	92 10 20 09 	mov  9, %o1	! 9 <_ld_libc+0x9>
   11bb0:	d2 22 20 00 	st  %o1, [ %o0 ]
   11bb4:	81 c7 e0 08 	ret 
   11bb8:	91 e8 3f ff 	restore  %g0, -1, %o0
   11bbc:	9e 10 20 00 	clr  %o7
   11bc0:	90 10 00 13 	mov  %l3, %o0
   11bc4:	82 10 00 1d 	mov  %i5, %g1
   11bc8:	80 a2 20 00 	cmp  %o0, 0
   11bcc:	94 10 20 01 	mov  1, %o2
   11bd0:	24 80 00 72 	ble,a   11d98 <_select+0x5f0>
   11bd4:	90 10 00 0f 	mov  %o7, %o0
   11bd8:	d6 00 60 00 	ld  [ %g1 ], %o3
   11bdc:	9a 22 20 01 	sub  %o0, 1, %o5
   11be0:	11 00 00 9e 	sethi  %hi(0x27800), %o0
   11be4:	98 02 20 ec 	add  %o0, 0xec, %o4	! 278ec <ti_jmp_table+0x2e8>
   11be8:	d0 07 bf ec 	ld  [ %fp + -20 ], %o0
   11bec:	93 32 e0 05 	srl  %o3, 5, %o1
   11bf0:	80 a2 40 08 	cmp  %o1, %o0
   11bf4:	22 80 00 12 	be,a   11c3c <_select+0x494>
   11bf8:	d6 50 60 06 	ldsh  [ %g1 + 6 ], %o3
   11bfc:	80 a7 00 0c 	cmp  %i4, %o4
   11c00:	91 32 e0 03 	srl  %o3, 3, %o0
   11c04:	90 0a 3f fc 	and  %o0, -4, %o0
   11c08:	a4 07 00 08 	add  %i4, %o0, %l2
   11c0c:	a2 06 c0 08 	add  %i3, %o0, %l1
   11c10:	a0 06 80 08 	add  %i2, %o0, %l0
   11c14:	02 80 00 03 	be  11c20 <_select+0x478>
   11c18:	80 a6 c0 0c 	cmp  %i3, %o4
   11c1c:	f2 22 00 1c 	st  %i1, [ %o0 + %i4 ]
   11c20:	02 80 00 03 	be  11c2c <_select+0x484>
   11c24:	80 a6 80 0c 	cmp  %i2, %o4
   11c28:	f2 22 00 1b 	st  %i1, [ %o0 + %i3 ]
   11c2c:	32 80 00 02 	bne,a   11c34 <_select+0x48c>
   11c30:	f2 22 00 1a 	st  %i1, [ %o0 + %i2 ]
   11c34:	d2 27 bf ec 	st  %o1, [ %fp + -20 ]
   11c38:	d6 50 60 06 	ldsh  [ %g1 + 6 ], %o3
   11c3c:	80 a2 e0 00 	cmp  %o3, 0
   11c40:	22 80 00 4a 	be,a   11d68 <_select+0x5c0>
   11c44:	82 00 60 08 	add  %g1, 8, %g1
   11c48:	d0 00 60 00 	ld  [ %g1 ], %o0
   11c4c:	80 8a e0 40 	btst  0x40, %o3
   11c50:	90 0a 20 1f 	and  %o0, 0x1f, %o0
   11c54:	93 2a 80 08 	sll  %o2, %o0, %o1
   11c58:	90 10 00 0b 	mov  %o3, %o0
   11c5c:	02 80 00 08 	be  11c7c <_select+0x4d4>
   11c60:	80 8a 20 04 	btst  4, %o0
   11c64:	d0 04 a0 00 	ld  [ %l2 ], %o0
   11c68:	9e 03 e0 01 	inc  %o7
   11c6c:	90 12 00 09 	or  %o0, %o1, %o0
   11c70:	d0 24 a0 00 	st  %o0, [ %l2 ]
   11c74:	d0 50 60 06 	ldsh  [ %g1 + 6 ], %o0
   11c78:	80 8a 20 04 	btst  4, %o0
   11c7c:	02 80 00 08 	be  11c9c <_select+0x4f4>
   11c80:	80 8a 20 80 	btst  0x80, %o0
   11c84:	d0 04 60 00 	ld  [ %l1 ], %o0
   11c88:	9e 03 e0 01 	inc  %o7
   11c8c:	90 12 00 09 	or  %o0, %o1, %o0
   11c90:	d0 24 60 00 	st  %o0, [ %l1 ]
   11c94:	d0 50 60 06 	ldsh  [ %g1 + 6 ], %o0
   11c98:	80 8a 20 80 	btst  0x80, %o0
   11c9c:	02 80 00 08 	be  11cbc <_select+0x514>
   11ca0:	96 8a 20 18 	andcc  %o0, 0x18, %o3
   11ca4:	d0 04 20 00 	ld  [ %l0 ], %o0
   11ca8:	9e 03 e0 01 	inc  %o7
   11cac:	90 12 00 09 	or  %o0, %o1, %o0
   11cb0:	d0 24 20 00 	st  %o0, [ %l0 ]
   11cb4:	d0 50 60 06 	ldsh  [ %g1 + 6 ], %o0
   11cb8:	96 8a 20 18 	andcc  %o0, 0x18, %o3
   11cbc:	02 80 00 0f 	be  11cf8 <_select+0x550>
   11cc0:	80 a2 e0 00 	cmp  %o3, 0
   11cc4:	d0 50 60 04 	ldsh  [ %g1 + 4 ], %o0
   11cc8:	80 8a 20 40 	btst  0x40, %o0
   11ccc:	02 80 00 0b 	be  11cf8 <_select+0x550>
   11cd0:	80 a2 e0 00 	cmp  %o3, 0
   11cd4:	d0 04 a0 00 	ld  [ %l2 ], %o0
   11cd8:	80 8a 00 09 	btst  %o0, %o1
   11cdc:	12 80 00 03 	bne  11ce8 <_select+0x540>
   11ce0:	90 12 00 09 	or  %o0, %o1, %o0
   11ce4:	9e 03 e0 01 	inc  %o7
   11ce8:	d0 24 a0 00 	st  %o0, [ %l2 ]
   11cec:	d0 50 60 06 	ldsh  [ %g1 + 6 ], %o0
   11cf0:	96 0a 20 18 	and  %o0, 0x18, %o3
   11cf4:	80 a2 e0 00 	cmp  %o3, 0
   11cf8:	02 80 00 0f 	be  11d34 <_select+0x58c>
   11cfc:	80 a2 e0 00 	cmp  %o3, 0
   11d00:	d0 50 60 04 	ldsh  [ %g1 + 4 ], %o0
   11d04:	80 8a 20 04 	btst  4, %o0
   11d08:	02 80 00 0b 	be  11d34 <_select+0x58c>
   11d0c:	80 a2 e0 00 	cmp  %o3, 0
   11d10:	d0 04 60 00 	ld  [ %l1 ], %o0
   11d14:	80 8a 00 09 	btst  %o0, %o1
   11d18:	12 80 00 03 	bne  11d24 <_select+0x57c>
   11d1c:	90 12 00 09 	or  %o0, %o1, %o0
   11d20:	9e 03 e0 01 	inc  %o7
   11d24:	d0 24 60 00 	st  %o0, [ %l1 ]
   11d28:	d0 50 60 06 	ldsh  [ %g1 + 6 ], %o0
   11d2c:	96 0a 20 18 	and  %o0, 0x18, %o3
   11d30:	80 a2 e0 00 	cmp  %o3, 0
   11d34:	22 80 00 0d 	be,a   11d68 <_select+0x5c0>
   11d38:	82 00 60 08 	add  %g1, 8, %g1
   11d3c:	d0 50 60 04 	ldsh  [ %g1 + 4 ], %o0
   11d40:	80 8a 20 80 	btst  0x80, %o0
   11d44:	22 80 00 09 	be,a   11d68 <_select+0x5c0>
   11d48:	82 00 60 08 	add  %g1, 8, %g1
   11d4c:	d0 04 20 00 	ld  [ %l0 ], %o0
   11d50:	80 8a 00 09 	btst  %o0, %o1
   11d54:	12 80 00 03 	bne  11d60 <_select+0x5b8>
   11d58:	90 12 00 09 	or  %o0, %o1, %o0
   11d5c:	9e 03 e0 01 	inc  %o7
   11d60:	d0 24 20 00 	st  %o0, [ %l0 ]
   11d64:	82 00 60 08 	add  %g1, 8, %g1
   11d68:	80 90 00 0d 	tst  %o5
   11d6c:	9a 23 60 01 	dec  %o5
   11d70:	34 bf ff 9e 	bg,a   11be8 <_select+0x440>
   11d74:	d6 00 60 00 	ld  [ %g1 ], %o3
   11d78:	90 10 00 0f 	mov  %o7, %o0
   11d7c:	81 c7 e0 08 	ret 
   11d80:	91 e8 00 08 	restore  %g0, %o0, %o0
   11d84:	40 00 0f 1a 	call  159ec <___errno>
   11d88:	01 00 00 00 	nop 
   11d8c:	92 10 20 16 	mov  0x16, %o1	! 16 <_ld_libc+0x16>
   11d90:	d2 22 20 00 	st  %o1, [ %o0 ]
   11d94:	90 10 3f ff 	mov  -1, %o0
   11d98:	81 c7 e0 08 	ret 
   11d9c:	91 e8 00 08 	restore  %g0, %o0, %o0

0000000000011da0 <_signal>:
   11da0:	9d e3 bf 60 	save  %sp, -160, %sp
   11da4:	b0 90 00 18 	orcc  %g0, %i0, %i0
   11da8:	04 80 00 2e 	ble  11e60 <_signal+0xc0>
   11dac:	80 a6 20 2e 	cmp  %i0, 0x2e
   11db0:	16 80 00 2c 	bge  11e60 <_signal+0xc0>
   11db4:	01 00 00 00 	nop 
   11db8:	80 a6 20 09 	cmp  %i0, 9
   11dbc:	02 80 00 29 	be  11e60 <_signal+0xc0>
   11dc0:	01 00 00 00 	nop 
   11dc4:	80 a6 20 17 	cmp  %i0, 0x17
   11dc8:	02 80 00 26 	be  11e60 <_signal+0xc0>
   11dcc:	90 10 20 12 	mov  0x12, %o0
   11dd0:	f2 27 bf e4 	st  %i1, [ %fp + -28 ]
   11dd4:	d0 27 bf e0 	st  %o0, [ %fp + -32 ]
   11dd8:	40 00 01 cd 	call  1250c <_sigemptyset>
   11ddc:	90 07 bf e8 	add  %fp, -24, %o0
   11de0:	d2 07 bf e0 	ld  [ %fp + -32 ], %o1
   11de4:	80 a6 20 12 	cmp  %i0, 0x12
   11de8:	90 10 00 09 	mov  %o1, %o0
   11dec:	12 80 00 0a 	bne  11e14 <_signal+0x74>
   11df0:	80 a6 20 18 	cmp  %i0, 0x18
   11df4:	11 00 00 80 	sethi  %hi(0x20000), %o0
   11df8:	80 a6 60 01 	cmp  %i1, 1
   11dfc:	90 12 40 08 	or  %o1, %o0, %o0
   11e00:	12 80 00 05 	bne  11e14 <_signal+0x74>
   11e04:	80 a6 20 18 	cmp  %i0, 0x18
   11e08:	11 00 00 c0 	sethi  %hi(0x30000), %o0
   11e0c:	80 a6 20 18 	cmp  %i0, 0x18
   11e10:	90 12 40 08 	or  %o1, %o0, %o0
   11e14:	22 80 00 09 	be,a   11e38 <_signal+0x98>
   11e18:	90 12 20 04 	or  %o0, 4, %o0
   11e1c:	80 a6 20 1b 	cmp  %i0, 0x1b
   11e20:	22 80 00 06 	be,a   11e38 <_signal+0x98>
   11e24:	90 12 20 04 	or  %o0, 4, %o0
   11e28:	80 a6 20 1a 	cmp  %i0, 0x1a
   11e2c:	32 80 00 04 	bne,a   11e3c <_signal+0x9c>
   11e30:	d0 27 bf e0 	st  %o0, [ %fp + -32 ]
   11e34:	90 12 20 04 	or  %o0, 4, %o0
   11e38:	d0 27 bf e0 	st  %o0, [ %fp + -32 ]
   11e3c:	92 07 bf e0 	add  %fp, -32, %o1
   11e40:	94 07 bf c0 	add  %fp, -64, %o2
   11e44:	7f ff fb 15 	call  10a98 <_sigaction>
   11e48:	90 10 00 18 	mov  %i0, %o0
   11e4c:	80 90 00 08 	tst  %o0
   11e50:	36 80 00 09 	bge,a   11e74 <_signal+0xd4>
   11e54:	d0 07 bf c4 	ld  [ %fp + -60 ], %o0
   11e58:	81 c7 e0 08 	ret 
   11e5c:	91 e8 3f ff 	restore  %g0, -1, %o0
   11e60:	40 00 0e e3 	call  159ec <___errno>
   11e64:	01 00 00 00 	nop 
   11e68:	92 10 20 16 	mov  0x16, %o1	! 16 <_ld_libc+0x16>
   11e6c:	d2 22 20 00 	st  %o1, [ %o0 ]
   11e70:	90 10 3f ff 	mov  -1, %o0
   11e74:	81 c7 e0 08 	ret 
   11e78:	91 e8 00 08 	restore  %g0, %o0, %o0

0000000000011e7c <_sighold>:
   11e7c:	9d e3 bf 90 	save  %sp, -112, %sp
   11e80:	b0 90 00 18 	orcc  %g0, %i0, %i0
   11e84:	04 80 00 19 	ble  11ee8 <_sighold+0x6c>
   11e88:	80 a6 20 2e 	cmp  %i0, 0x2e
   11e8c:	16 80 00 17 	bge  11ee8 <_sighold+0x6c>
   11e90:	01 00 00 00 	nop 
   11e94:	80 a6 20 09 	cmp  %i0, 9
   11e98:	02 80 00 14 	be  11ee8 <_sighold+0x6c>
   11e9c:	01 00 00 00 	nop 
   11ea0:	80 a6 20 17 	cmp  %i0, 0x17
   11ea4:	02 80 00 11 	be  11ee8 <_sighold+0x6c>
   11ea8:	01 00 00 00 	nop 
   11eac:	40 00 01 98 	call  1250c <_sigemptyset>
   11eb0:	90 07 bf f0 	add  %fp, -16, %o0
   11eb4:	90 07 bf f0 	add  %fp, -16, %o0
   11eb8:	40 00 01 9b 	call  12524 <_sigaddset>
   11ebc:	92 10 00 18 	mov  %i0, %o1
   11ec0:	80 90 00 08 	tst  %o0
   11ec4:	16 80 00 04 	bge  11ed4 <_sighold+0x58>
   11ec8:	92 07 bf f0 	add  %fp, -16, %o1
   11ecc:	81 c7 e0 08 	ret 
   11ed0:	91 e8 3f ff 	restore  %g0, -1, %o0
   11ed4:	90 10 20 01 	mov  1, %o0
   11ed8:	7f ff fa f5 	call  10aac <_sigprocmask>
   11edc:	94 10 20 00 	clr  %o2
   11ee0:	81 c7 e0 08 	ret 
   11ee4:	91 e8 00 08 	restore  %g0, %o0, %o0
   11ee8:	40 00 0e c1 	call  159ec <___errno>
   11eec:	01 00 00 00 	nop 
   11ef0:	92 10 20 16 	mov  0x16, %o1	! 16 <_ld_libc+0x16>
   11ef4:	d2 22 20 00 	st  %o1, [ %o0 ]
   11ef8:	81 c7 e0 08 	ret 
   11efc:	91 e8 3f ff 	restore  %g0, -1, %o0

0000000000011f00 <_sigrelse>:
   11f00:	9d e3 bf 90 	save  %sp, -112, %sp
   11f04:	b0 90 00 18 	orcc  %g0, %i0, %i0
   11f08:	04 80 00 19 	ble  11f6c <_sigrelse+0x6c>
   11f0c:	80 a6 20 2e 	cmp  %i0, 0x2e
   11f10:	16 80 00 17 	bge  11f6c <_sigrelse+0x6c>
   11f14:	01 00 00 00 	nop 
   11f18:	80 a6 20 09 	cmp  %i0, 9
   11f1c:	02 80 00 14 	be  11f6c <_sigrelse+0x6c>
   11f20:	01 00 00 00 	nop 
   11f24:	80 a6 20 17 	cmp  %i0, 0x17
   11f28:	02 80 00 11 	be  11f6c <_sigrelse+0x6c>
   11f2c:	01 00 00 00 	nop 
   11f30:	40 00 01 77 	call  1250c <_sigemptyset>
   11f34:	90 07 bf f0 	add  %fp, -16, %o0
   11f38:	90 07 bf f0 	add  %fp, -16, %o0
   11f3c:	40 00 01 7a 	call  12524 <_sigaddset>
   11f40:	92 10 00 18 	mov  %i0, %o1
   11f44:	80 90 00 08 	tst  %o0
   11f48:	16 80 00 04 	bge  11f58 <_sigrelse+0x58>
   11f4c:	92 07 bf f0 	add  %fp, -16, %o1
   11f50:	81 c7 e0 08 	ret 
   11f54:	91 e8 3f ff 	restore  %g0, -1, %o0
   11f58:	90 10 20 02 	mov  2, %o0
   11f5c:	7f ff fa d4 	call  10aac <_sigprocmask>
   11f60:	94 10 20 00 	clr  %o2
   11f64:	81 c7 e0 08 	ret 
   11f68:	91 e8 00 08 	restore  %g0, %o0, %o0
   11f6c:	40 00 0e a0 	call  159ec <___errno>
   11f70:	01 00 00 00 	nop 
   11f74:	92 10 20 16 	mov  0x16, %o1	! 16 <_ld_libc+0x16>
   11f78:	d2 22 20 00 	st  %o1, [ %o0 ]
   11f7c:	81 c7 e0 08 	ret 
   11f80:	91 e8 3f ff 	restore  %g0, -1, %o0

0000000000011f84 <_sigignore>:
   11f84:	9d e3 bf 70 	save  %sp, -144, %sp
   11f88:	b0 90 00 18 	orcc  %g0, %i0, %i0
   11f8c:	04 80 00 37 	ble  12068 <_sigignore+0xe4>
   11f90:	80 a6 20 2e 	cmp  %i0, 0x2e
   11f94:	16 80 00 35 	bge  12068 <_sigignore+0xe4>
   11f98:	01 00 00 00 	nop 
   11f9c:	80 a6 20 09 	cmp  %i0, 9
   11fa0:	02 80 00 32 	be  12068 <_sigignore+0xe4>
   11fa4:	01 00 00 00 	nop 
   11fa8:	80 a6 20 17 	cmp  %i0, 0x17
   11fac:	02 80 00 2f 	be  12068 <_sigignore+0xe4>
   11fb0:	90 10 20 01 	mov  1, %o0
   11fb4:	d0 27 bf e4 	st  %o0, [ %fp + -28 ]
   11fb8:	c0 27 bf e0 	clr  [ %fp + -32 ]
   11fbc:	40 00 01 54 	call  1250c <_sigemptyset>
   11fc0:	90 07 bf e8 	add  %fp, -24, %o0
   11fc4:	d2 07 bf e0 	ld  [ %fp + -32 ], %o1
   11fc8:	80 a6 20 12 	cmp  %i0, 0x12
   11fcc:	90 10 00 09 	mov  %o1, %o0
   11fd0:	12 80 00 04 	bne  11fe0 <_sigignore+0x5c>
   11fd4:	80 a6 20 18 	cmp  %i0, 0x18
   11fd8:	11 00 00 c0 	sethi  %hi(0x30000), %o0
   11fdc:	90 12 40 08 	or  %o1, %o0, %o0
   11fe0:	22 80 00 09 	be,a   12004 <_sigignore+0x80>
   11fe4:	90 12 20 04 	or  %o0, 4, %o0
   11fe8:	80 a6 20 1b 	cmp  %i0, 0x1b
   11fec:	22 80 00 06 	be,a   12004 <_sigignore+0x80>
   11ff0:	90 12 20 04 	or  %o0, 4, %o0
   11ff4:	80 a6 20 1a 	cmp  %i0, 0x1a
   11ff8:	32 80 00 04 	bne,a   12008 <_sigignore+0x84>
   11ffc:	d0 27 bf e0 	st  %o0, [ %fp + -32 ]
   12000:	90 12 20 04 	or  %o0, 4, %o0
   12004:	d0 27 bf e0 	st  %o0, [ %fp + -32 ]
   12008:	90 10 00 18 	mov  %i0, %o0
   1200c:	92 07 bf e0 	add  %fp, -32, %o1
   12010:	7f ff fa a2 	call  10a98 <_sigaction>
   12014:	94 10 20 00 	clr  %o2
   12018:	80 90 00 08 	tst  %o0
   1201c:	16 80 00 04 	bge  1202c <_sigignore+0xa8>
   12020:	01 00 00 00 	nop 
   12024:	81 c7 e0 08 	ret 
   12028:	91 e8 3f ff 	restore  %g0, -1, %o0
   1202c:	40 00 01 38 	call  1250c <_sigemptyset>
   12030:	90 07 bf d0 	add  %fp, -48, %o0
   12034:	90 07 bf d0 	add  %fp, -48, %o0
   12038:	40 00 01 3b 	call  12524 <_sigaddset>
   1203c:	92 10 00 18 	mov  %i0, %o1
   12040:	80 90 00 08 	tst  %o0
   12044:	16 80 00 04 	bge  12054 <_sigignore+0xd0>
   12048:	92 07 bf d0 	add  %fp, -48, %o1
   1204c:	81 c7 e0 08 	ret 
   12050:	91 e8 3f ff 	restore  %g0, -1, %o0
   12054:	90 10 20 02 	mov  2, %o0
   12058:	7f ff fa 95 	call  10aac <_sigprocmask>
   1205c:	94 10 20 00 	clr  %o2
   12060:	81 c7 e0 08 	ret 
   12064:	91 e8 00 08 	restore  %g0, %o0, %o0
   12068:	40 00 0e 61 	call  159ec <___errno>
   1206c:	01 00 00 00 	nop 
   12070:	92 10 20 16 	mov  0x16, %o1	! 16 <_ld_libc+0x16>
   12074:	d2 22 20 00 	st  %o1, [ %o0 ]
   12078:	81 c7 e0 08 	ret 
   1207c:	91 e8 3f ff 	restore  %g0, -1, %o0

0000000000012080 <_sigpause>:
   12080:	9d e3 bf 90 	save  %sp, -112, %sp
   12084:	b2 90 00 18 	orcc  %g0, %i0, %i1
   12088:	04 80 00 1c 	ble  120f8 <_sigpause+0x78>
   1208c:	80 a6 20 2e 	cmp  %i0, 0x2e
   12090:	16 80 00 1a 	bge  120f8 <_sigpause+0x78>
   12094:	01 00 00 00 	nop 
   12098:	80 a6 20 09 	cmp  %i0, 9
   1209c:	02 80 00 17 	be  120f8 <_sigpause+0x78>
   120a0:	01 00 00 00 	nop 
   120a4:	80 a6 20 17 	cmp  %i0, 0x17
   120a8:	02 80 00 14 	be  120f8 <_sigpause+0x78>
   120ac:	94 07 bf f0 	add  %fp, -16, %o2
   120b0:	90 10 20 00 	clr  %o0
   120b4:	7f ff fa 7e 	call  10aac <_sigprocmask>
   120b8:	92 10 20 00 	clr  %o1
   120bc:	90 07 bf f0 	add  %fp, -16, %o0
   120c0:	40 00 01 2f 	call  1257c <_sigdelset>
   120c4:	92 10 00 18 	mov  %i0, %o1
   120c8:	80 90 00 08 	tst  %o0
   120cc:	16 80 00 04 	bge  120dc <_sigpause+0x5c>
   120d0:	01 00 00 00 	nop 
   120d4:	81 c7 e0 08 	ret 
   120d8:	91 e8 3f ff 	restore  %g0, -1, %o0
   120dc:	40 00 0e 71 	call  15aa0 <_sigsuspend>
   120e0:	90 07 bf f0 	add  %fp, -16, %o0
   120e4:	b0 10 00 08 	mov  %o0, %i0
   120e8:	7f ff ff 86 	call  11f00 <_sigrelse>
   120ec:	90 10 00 19 	mov  %i1, %o0
   120f0:	81 c7 e0 08 	ret 
   120f4:	81 e8 00 00 	restore 
   120f8:	40 00 0e 3d 	call  159ec <___errno>
   120fc:	01 00 00 00 	nop 
   12100:	92 10 20 16 	mov  0x16, %o1	! 16 <_ld_libc+0x16>
   12104:	d2 22 20 00 	st  %o1, [ %o0 ]
   12108:	81 c7 e0 08 	ret 
   1210c:	91 e8 3f ff 	restore  %g0, -1, %o0

0000000000012110 <_sigset>:
   12110:	9d e3 bf 40 	save  %sp, -192, %sp
   12114:	b4 90 00 18 	orcc  %g0, %i0, %i2
   12118:	04 80 00 5d 	ble  1228c <_sigset+0x17c>
   1211c:	80 a6 20 2e 	cmp  %i0, 0x2e
   12120:	16 80 00 5b 	bge  1228c <_sigset+0x17c>
   12124:	01 00 00 00 	nop 
   12128:	80 a6 a0 09 	cmp  %i2, 9
   1212c:	02 80 00 58 	be  1228c <_sigset+0x17c>
   12130:	01 00 00 00 	nop 
   12134:	80 a6 a0 17 	cmp  %i2, 0x17
   12138:	02 80 00 55 	be  1228c <_sigset+0x17c>
   1213c:	01 00 00 00 	nop 
   12140:	40 00 00 f3 	call  1250c <_sigemptyset>
   12144:	90 07 bf f0 	add  %fp, -16, %o0
   12148:	90 07 bf f0 	add  %fp, -16, %o0
   1214c:	40 00 00 f6 	call  12524 <_sigaddset>
   12150:	92 10 00 1a 	mov  %i2, %o1
   12154:	80 90 00 08 	tst  %o0
   12158:	16 80 00 04 	bge  12168 <_sigset+0x58>
   1215c:	80 a6 60 02 	cmp  %i1, 2
   12160:	81 c7 e0 08 	ret 
   12164:	91 e8 3f ff 	restore  %g0, -1, %o0
   12168:	12 80 00 12 	bne  121b0 <_sigset+0xa0>
   1216c:	92 07 bf f0 	add  %fp, -16, %o1
   12170:	94 07 bf e0 	add  %fp, -32, %o2
   12174:	7f ff fa 4e 	call  10aac <_sigprocmask>
   12178:	90 10 20 01 	mov  1, %o0
   1217c:	80 90 00 08 	tst  %o0
   12180:	16 80 00 04 	bge  12190 <_sigset+0x80>
   12184:	94 07 bf c0 	add  %fp, -64, %o2
   12188:	81 c7 e0 08 	ret 
   1218c:	91 e8 3f ff 	restore  %g0, -1, %o0
   12190:	90 10 00 1a 	mov  %i2, %o0
   12194:	7f ff fa 41 	call  10a98 <_sigaction>
   12198:	92 10 20 00 	clr  %o1
   1219c:	80 90 00 08 	tst  %o0
   121a0:	16 80 00 30 	bge  12260 <_sigset+0x150>
   121a4:	90 07 bf e0 	add  %fp, -32, %o0
   121a8:	81 c7 e0 08 	ret 
   121ac:	91 e8 3f ff 	restore  %g0, -1, %o0
   121b0:	f2 27 bf a4 	st  %i1, [ %fp + -92 ]
   121b4:	c0 27 bf a0 	clr  [ %fp + -96 ]
   121b8:	40 00 00 d5 	call  1250c <_sigemptyset>
   121bc:	90 07 bf a8 	add  %fp, -88, %o0
   121c0:	d2 07 bf a0 	ld  [ %fp + -96 ], %o1
   121c4:	80 a6 a0 12 	cmp  %i2, 0x12
   121c8:	90 10 00 09 	mov  %o1, %o0
   121cc:	12 80 00 0a 	bne  121f4 <_sigset+0xe4>
   121d0:	80 a6 a0 18 	cmp  %i2, 0x18
   121d4:	11 00 00 80 	sethi  %hi(0x20000), %o0
   121d8:	80 a6 60 01 	cmp  %i1, 1
   121dc:	90 12 40 08 	or  %o1, %o0, %o0
   121e0:	12 80 00 05 	bne  121f4 <_sigset+0xe4>
   121e4:	80 a6 a0 18 	cmp  %i2, 0x18
   121e8:	11 00 00 c0 	sethi  %hi(0x30000), %o0
   121ec:	80 a6 a0 18 	cmp  %i2, 0x18
   121f0:	90 12 40 08 	or  %o1, %o0, %o0
   121f4:	22 80 00 09 	be,a   12218 <_sigset+0x108>
   121f8:	90 12 20 04 	or  %o0, 4, %o0
   121fc:	80 a6 a0 1b 	cmp  %i2, 0x1b
   12200:	22 80 00 06 	be,a   12218 <_sigset+0x108>
   12204:	90 12 20 04 	or  %o0, 4, %o0
   12208:	80 a6 a0 1a 	cmp  %i2, 0x1a
   1220c:	32 80 00 04 	bne,a   1221c <_sigset+0x10c>
   12210:	d0 27 bf a0 	st  %o0, [ %fp + -96 ]
   12214:	90 12 20 04 	or  %o0, 4, %o0
   12218:	d0 27 bf a0 	st  %o0, [ %fp + -96 ]
   1221c:	92 07 bf a0 	add  %fp, -96, %o1
   12220:	94 07 bf c0 	add  %fp, -64, %o2
   12224:	7f ff fa 1d 	call  10a98 <_sigaction>
   12228:	90 10 00 1a 	mov  %i2, %o0
   1222c:	80 90 00 08 	tst  %o0
   12230:	16 80 00 04 	bge  12240 <_sigset+0x130>
   12234:	92 07 bf f0 	add  %fp, -16, %o1
   12238:	81 c7 e0 08 	ret 
   1223c:	91 e8 3f ff 	restore  %g0, -1, %o0
   12240:	94 07 bf e0 	add  %fp, -32, %o2
   12244:	7f ff fa 1a 	call  10aac <_sigprocmask>
   12248:	90 10 20 02 	mov  2, %o0
   1224c:	80 90 00 08 	tst  %o0
   12250:	16 80 00 04 	bge  12260 <_sigset+0x150>
   12254:	90 07 bf e0 	add  %fp, -32, %o0
   12258:	81 c7 e0 08 	ret 
   1225c:	91 e8 3f ff 	restore  %g0, -1, %o0
   12260:	40 00 00 de 	call  125d8 <_sigismember>
   12264:	92 10 00 1a 	mov  %i2, %o1
   12268:	90 90 00 08 	orcc  %g0, %o0, %o0
   1226c:	16 80 00 04 	bge  1227c <_sigset+0x16c>
   12270:	80 a2 20 01 	cmp  %o0, 1
   12274:	81 c7 e0 08 	ret 
   12278:	91 e8 3f ff 	restore  %g0, -1, %o0
   1227c:	32 80 00 09 	bne,a   122a0 <_sigset+0x190>
   12280:	d0 07 bf c4 	ld  [ %fp + -60 ], %o0
   12284:	81 c7 e0 08 	ret 
   12288:	91 e8 20 02 	restore  %g0, 2, %o0
   1228c:	40 00 0d d8 	call  159ec <___errno>
   12290:	01 00 00 00 	nop 
   12294:	92 10 20 16 	mov  0x16, %o1	! 16 <_ld_libc+0x16>
   12298:	d2 22 20 00 	st  %o1, [ %o0 ]
   1229c:	90 10 3f ff 	mov  -1, %o0
   122a0:	81 c7 e0 08 	ret 
   122a4:	91 e8 00 08 	restore  %g0, %o0, %o0

00000000000122a8 <awake>:
   122a8:	81 c3 e0 08 	retl 
   122ac:	01 00 00 00 	nop 

00000000000122b0 <_libc_sleep>:
   122b0:	9d e3 bf 30 	save  %sp, -208, %sp
   122b4:	b8 90 00 18 	orcc  %g0, %i0, %i4
   122b8:	12 80 00 04 	bne  122c8 <_libc_sleep+0x18>
   122bc:	01 00 00 00 	nop 
   122c0:	81 c7 e0 08 	ret 
   122c4:	91 e8 20 00 	restore  %g0, 0, %o0
   122c8:	7f ff fb 2a 	call  10f70 <_alarm>
   122cc:	90 10 20 00 	clr  %o0
   122d0:	13 00 00 48 	sethi  %hi(0x12000), %o1
   122d4:	b0 10 00 08 	mov  %o0, %i0
   122d8:	92 02 62 a8 	add  %o1, 0x2a8, %o1
   122dc:	d2 27 bf e4 	st  %o1, [ %fp + -28 ]
   122e0:	b6 10 00 08 	mov  %o0, %i3
   122e4:	c0 27 bf e0 	clr  [ %fp + -32 ]
   122e8:	b4 10 20 00 	clr  %i2
   122ec:	40 00 00 88 	call  1250c <_sigemptyset>
   122f0:	90 07 bf e8 	add  %fp, -24, %o0
   122f4:	92 07 bf e0 	add  %fp, -32, %o1
   122f8:	94 07 bf c0 	add  %fp, -64, %o2
   122fc:	7f ff f9 e7 	call  10a98 <_sigaction>
   12300:	90 10 20 0e 	mov  0xe, %o0
   12304:	80 a6 20 00 	cmp  %i0, 0
   12308:	02 80 00 0f 	be  12344 <_libc_sleep+0x94>
   1230c:	b2 10 20 00 	clr  %i1
   12310:	80 a6 00 1c 	cmp  %i0, %i4
   12314:	08 80 00 04 	bleu  12324 <_libc_sleep+0x74>
   12318:	b6 26 00 1c 	sub  %i0, %i4, %i3
   1231c:	10 80 00 0a 	b  12344 <_libc_sleep+0x94>
   12320:	b4 10 20 01 	mov  1, %i2
   12324:	92 07 bf c0 	add  %fp, -64, %o1
   12328:	90 10 20 0e 	mov  0xe, %o0
   1232c:	7f ff f9 db 	call  10a98 <_sigaction>
   12330:	94 10 20 00 	clr  %o2
   12334:	b2 27 00 18 	sub  %i4, %i0, %i1
   12338:	b8 10 00 18 	mov  %i0, %i4
   1233c:	b6 10 20 00 	clr  %i3
   12340:	b4 10 3f ff 	mov  -1, %i2
   12344:	40 00 00 72 	call  1250c <_sigemptyset>
   12348:	90 07 bf b0 	add  %fp, -80, %o0
   1234c:	90 07 bf b0 	add  %fp, -80, %o0
   12350:	40 00 00 75 	call  12524 <_sigaddset>
   12354:	92 10 20 0e 	mov  0xe, %o1
   12358:	92 07 bf b0 	add  %fp, -80, %o1
   1235c:	94 07 bf a0 	add  %fp, -96, %o2
   12360:	7f ff f9 d3 	call  10aac <_sigprocmask>
   12364:	90 10 20 01 	mov  1, %o0
   12368:	d0 07 bf a0 	ld  [ %fp + -96 ], %o0
   1236c:	d0 27 bf 90 	st  %o0, [ %fp + -112 ]
   12370:	d0 07 bf a4 	ld  [ %fp + -92 ], %o0
   12374:	d0 27 bf 94 	st  %o0, [ %fp + -108 ]
   12378:	d0 07 bf a8 	ld  [ %fp + -88 ], %o0
   1237c:	d0 27 bf 98 	st  %o0, [ %fp + -104 ]
   12380:	d0 07 bf ac 	ld  [ %fp + -84 ], %o0
   12384:	d0 27 bf 9c 	st  %o0, [ %fp + -100 ]
   12388:	90 07 bf 90 	add  %fp, -112, %o0
   1238c:	40 00 00 7c 	call  1257c <_sigdelset>
   12390:	92 10 20 0e 	mov  0xe, %o1
   12394:	7f ff fa f7 	call  10f70 <_alarm>
   12398:	90 10 00 1c 	mov  %i4, %o0
   1239c:	40 00 0d c1 	call  15aa0 <_sigsuspend>
   123a0:	90 07 bf 90 	add  %fp, -112, %o0
   123a4:	7f ff fa f3 	call  10f70 <_alarm>
   123a8:	90 10 20 00 	clr  %o0
   123ac:	b0 10 00 08 	mov  %o0, %i0
   123b0:	90 07 bf a0 	add  %fp, -96, %o0
   123b4:	40 00 00 89 	call  125d8 <_sigismember>
   123b8:	92 10 20 0e 	mov  0xe, %o1
   123bc:	80 90 00 08 	tst  %o0
   123c0:	12 80 00 07 	bne  123dc <_libc_sleep+0x12c>
   123c4:	80 a6 a0 00 	cmp  %i2, 0
   123c8:	92 07 bf b0 	add  %fp, -80, %o1
   123cc:	90 10 20 02 	mov  2, %o0
   123d0:	7f ff f9 b7 	call  10aac <_sigprocmask>
   123d4:	94 10 20 00 	clr  %o2
   123d8:	80 a6 a0 00 	cmp  %i2, 0
   123dc:	06 80 00 07 	bl  123f8 <_libc_sleep+0x148>
   123e0:	80 a6 a0 00 	cmp  %i2, 0
   123e4:	92 07 bf c0 	add  %fp, -64, %o1
   123e8:	90 10 20 0e 	mov  0xe, %o0
   123ec:	7f ff f9 ab 	call  10a98 <_sigaction>
   123f0:	94 10 20 00 	clr  %o2
   123f4:	80 a6 a0 00 	cmp  %i2, 0
   123f8:	14 80 00 07 	bg  12414 <_libc_sleep+0x164>
   123fc:	01 00 00 00 	nop 
   12400:	16 80 00 08 	bge  12420 <_libc_sleep+0x170>
   12404:	90 06 40 18 	add  %i1, %i0, %o0
   12408:	80 a6 20 00 	cmp  %i0, 0
   1240c:	02 80 00 05 	be  12420 <_libc_sleep+0x170>
   12410:	90 06 40 18 	add  %i1, %i0, %o0
   12414:	7f ff fa d7 	call  10f70 <_alarm>
   12418:	90 06 c0 18 	add  %i3, %i0, %o0
   1241c:	90 06 40 18 	add  %i1, %i0, %o0
   12420:	81 c7 e0 08 	ret 
   12424:	91 e8 00 08 	restore  %g0, %o0, %o0

0000000000012428 <sigvalid>:
   12428:	9d e3 bf a0 	save  %sp, -96, %sp
   1242c:	b0 90 00 18 	orcc  %g0, %i0, %i0
   12430:	04 80 00 1c 	ble  124a0 <sigvalid+0x78>
   12434:	80 a6 20 80 	cmp  %i0, 0x80
   12438:	18 80 00 1a 	bgu  124a0 <sigvalid+0x78>
   1243c:	33 00 00 9f 	sethi  %hi(0x27c00), %i1
   12440:	d0 06 61 44 	ld  [ %i1 + 0x144 ], %o0	! 27d44 <sigsinit>
   12444:	03 00 00 9f 	sethi  %hi(0x27c00), %g1
   12448:	80 a2 20 00 	cmp  %o0, 0
   1244c:	12 80 00 08 	bne  1246c <sigvalid+0x44>
   12450:	90 26 20 01 	sub  %i0, 1, %o0
   12454:	40 00 0d 7f 	call  15a50 <__sigfillset>
   12458:	90 00 61 48 	add  %g1, 0x148, %o0
   1245c:	d0 06 61 44 	ld  [ %i1 + 0x144 ], %o0
   12460:	90 02 20 01 	inc  %o0
   12464:	d0 26 61 44 	st  %o0, [ %i1 + 0x144 ]
   12468:	90 26 20 01 	sub  %i0, 1, %o0
   1246c:	93 32 20 03 	srl  %o0, 3, %o1
   12470:	03 00 00 9f 	sethi  %hi(0x27c00), %g1
   12474:	92 0a 7f fc 	and  %o1, -4, %o1
   12478:	94 00 61 48 	add  %g1, 0x148, %o2
   1247c:	d2 02 40 0a 	ld  [ %o1 + %o2 ], %o1
   12480:	94 10 20 01 	mov  1, %o2
   12484:	90 0a 20 1f 	and  %o0, 0x1f, %o0
   12488:	91 2a 80 08 	sll  %o2, %o0, %o0
   1248c:	90 0a 40 08 	and  %o1, %o0, %o0
   12490:	80 a0 00 08 	cmp  %g0, %o0
   12494:	90 40 20 00 	addx  %g0, 0, %o0
   12498:	81 c7 e0 08 	ret 
   1249c:	91 e8 00 08 	restore  %g0, %o0, %o0
   124a0:	81 c7 e0 08 	ret 
   124a4:	91 e8 20 00 	restore  %g0, 0, %o0

00000000000124a8 <_sigfillset>:
   124a8:	9d e3 bf a0 	save  %sp, -96, %sp
   124ac:	b2 10 00 18 	mov  %i0, %i1
   124b0:	31 00 00 9f 	sethi  %hi(0x27c00), %i0
   124b4:	d0 06 21 44 	ld  [ %i0 + 0x144 ], %o0	! 27d44 <sigsinit>
   124b8:	80 a2 20 00 	cmp  %o0, 0
   124bc:	12 80 00 09 	bne  124e0 <_sigfillset+0x38>
   124c0:	03 00 00 9f 	sethi  %hi(0x27c00), %g1
   124c4:	03 00 00 9f 	sethi  %hi(0x27c00), %g1
   124c8:	40 00 0d 62 	call  15a50 <__sigfillset>
   124cc:	90 00 61 48 	add  %g1, 0x148, %o0	! 27d48 <sigs>
   124d0:	d0 06 21 44 	ld  [ %i0 + 0x144 ], %o0
   124d4:	03 00 00 9f 	sethi  %hi(0x27c00), %g1
   124d8:	90 02 20 01 	inc  %o0
   124dc:	d0 26 21 44 	st  %o0, [ %i0 + 0x144 ]
   124e0:	d2 00 61 48 	ld  [ %g1 + 0x148 ], %o1
   124e4:	90 00 61 48 	add  %g1, 0x148, %o0
   124e8:	d2 26 60 00 	st  %o1, [ %i1 ]
   124ec:	d2 02 20 04 	ld  [ %o0 + 4 ], %o1
   124f0:	d2 26 60 04 	st  %o1, [ %i1 + 4 ]
   124f4:	d2 02 20 08 	ld  [ %o0 + 8 ], %o1
   124f8:	d2 26 60 08 	st  %o1, [ %i1 + 8 ]
   124fc:	d0 02 20 0c 	ld  [ %o0 + 0xc ], %o0
   12500:	d0 26 60 0c 	st  %o0, [ %i1 + 0xc ]
   12504:	81 c7 e0 08 	ret 
   12508:	91 e8 20 00 	restore  %g0, 0, %o0

000000000001250c <_sigemptyset>:
   1250c:	c0 22 20 00 	clr  [ %o0 ]
   12510:	c0 22 20 04 	clr  [ %o0 + 4 ]
   12514:	c0 22 20 08 	clr  [ %o0 + 8 ]
   12518:	c0 22 20 0c 	clr  [ %o0 + 0xc ]
   1251c:	81 c3 e0 08 	retl 
   12520:	90 10 20 00 	clr  %o0

0000000000012524 <_sigaddset>:
   12524:	9d e3 bf a0 	save  %sp, -96, %sp
   12528:	7f ff ff c0 	call  12428 <sigvalid>
   1252c:	90 10 00 19 	mov  %i1, %o0
   12530:	80 90 00 08 	tst  %o0
   12534:	12 80 00 08 	bne  12554 <_sigaddset+0x30>
   12538:	90 26 60 01 	sub  %i1, 1, %o0
   1253c:	40 00 0d 2c 	call  159ec <___errno>
   12540:	01 00 00 00 	nop 
   12544:	92 10 20 16 	mov  0x16, %o1	! 16 <_ld_libc+0x16>
   12548:	d2 22 20 00 	st  %o1, [ %o0 ]
   1254c:	81 c7 e0 08 	ret 
   12550:	91 e8 3f ff 	restore  %g0, -1, %o0
   12554:	93 32 20 03 	srl  %o0, 3, %o1
   12558:	94 10 20 01 	mov  1, %o2
   1255c:	90 0a 20 1f 	and  %o0, 0x1f, %o0
   12560:	92 0a 7f fc 	and  %o1, -4, %o1
   12564:	91 2a 80 08 	sll  %o2, %o0, %o0
   12568:	d4 06 00 09 	ld  [ %i0 + %o1 ], %o2
   1256c:	90 12 80 08 	or  %o2, %o0, %o0
   12570:	d0 26 00 09 	st  %o0, [ %i0 + %o1 ]
   12574:	81 c7 e0 08 	ret 
   12578:	91 e8 20 00 	restore  %g0, 0, %o0

000000000001257c <_sigdelset>:
   1257c:	9d e3 bf a0 	save  %sp, -96, %sp
   12580:	7f ff ff aa 	call  12428 <sigvalid>
   12584:	90 10 00 19 	mov  %i1, %o0
   12588:	80 90 00 08 	tst  %o0
   1258c:	12 80 00 08 	bne  125ac <_sigdelset+0x30>
   12590:	90 26 60 01 	sub  %i1, 1, %o0
   12594:	40 00 0d 16 	call  159ec <___errno>
   12598:	01 00 00 00 	nop 
   1259c:	92 10 20 16 	mov  0x16, %o1	! 16 <_ld_libc+0x16>
   125a0:	d2 22 20 00 	st  %o1, [ %o0 ]
   125a4:	81 c7 e0 08 	ret 
   125a8:	91 e8 3f ff 	restore  %g0, -1, %o0
   125ac:	93 32 20 03 	srl  %o0, 3, %o1
   125b0:	94 10 20 01 	mov  1, %o2
   125b4:	90 0a 20 1f 	and  %o0, 0x1f, %o0
   125b8:	92 0a 7f fc 	and  %o1, -4, %o1
   125bc:	91 2a 80 08 	sll  %o2, %o0, %o0
   125c0:	d4 06 00 09 	ld  [ %i0 + %o1 ], %o2
   125c4:	90 3a 20 00 	xnor  %o0, 0, %o0
   125c8:	90 0a 80 08 	and  %o2, %o0, %o0
   125cc:	d0 26 00 09 	st  %o0, [ %i0 + %o1 ]
   125d0:	81 c7 e0 08 	ret 
   125d4:	91 e8 20 00 	restore  %g0, 0, %o0

00000000000125d8 <_sigismember>:
   125d8:	9d e3 bf a0 	save  %sp, -96, %sp
   125dc:	7f ff ff 93 	call  12428 <sigvalid>
   125e0:	90 10 00 19 	mov  %i1, %o0
   125e4:	80 90 00 08 	tst  %o0
   125e8:	12 80 00 08 	bne  12608 <_sigismember+0x30>
   125ec:	90 26 60 01 	sub  %i1, 1, %o0
   125f0:	40 00 0c ff 	call  159ec <___errno>
   125f4:	01 00 00 00 	nop 
   125f8:	92 10 20 16 	mov  0x16, %o1	! 16 <_ld_libc+0x16>
   125fc:	d2 22 20 00 	st  %o1, [ %o0 ]
   12600:	81 c7 e0 08 	ret 
   12604:	91 e8 3f ff 	restore  %g0, -1, %o0
   12608:	94 0a 20 1f 	and  %o0, 0x1f, %o2
   1260c:	92 10 20 01 	mov  1, %o1
   12610:	91 32 20 03 	srl  %o0, 3, %o0
   12614:	90 0a 3f fc 	and  %o0, -4, %o0
   12618:	d0 06 00 08 	ld  [ %i0 + %o0 ], %o0
   1261c:	93 2a 40 0a 	sll  %o1, %o2, %o1
   12620:	90 0a 00 09 	and  %o0, %o1, %o0
   12624:	80 a0 00 08 	cmp  %g0, %o0
   12628:	90 40 20 00 	addx  %g0, 0, %o0
   1262c:	81 c7 e0 08 	ret 
   12630:	91 e8 00 08 	restore  %g0, %o0, %o0

0000000000012634 <_tcdrain>:
   12634:	03 00 00 15 	sethi  %hi(0x5400), %g1
   12638:	94 10 20 01 	mov  1, %o2
   1263c:	92 00 60 05 	add  %g1, 5, %o1
   12640:	82 10 00 0f 	mov  %o7, %g1
   12644:	40 00 0b f8 	call  15624 <_ioctl>
   12648:	9e 10 00 01 	mov  %g1, %o7

000000000001264c <keys_destruct>:
   1264c:	9d e3 bf a0 	save  %sp, -96, %sp
   12650:	11 00 00 9f 	sethi  %hi(0x27c00), %o0
   12654:	b4 10 20 00 	clr  %i2
   12658:	b2 02 22 7c 	add  %o0, 0x27c, %i1
   1265c:	d0 02 22 7c 	ld  [ %o0 + 0x27c ], %o0
   12660:	b0 10 20 00 	clr  %i0
   12664:	80 a2 20 00 	cmp  %o0, 0
   12668:	08 80 00 19 	bleu  126cc <keys_destruct+0x80>
   1266c:	01 00 00 00 	nop 
   12670:	d0 06 60 0c 	ld  [ %i1 + 0xc ], %o0
   12674:	d2 02 00 18 	ld  [ %o0 + %i0 ], %o1
   12678:	d0 06 60 08 	ld  [ %i1 + 8 ], %o0
   1267c:	80 a2 60 00 	cmp  %o1, 0
   12680:	22 80 00 0e 	be,a   126b8 <keys_destruct+0x6c>
   12684:	b0 06 20 04 	add  %i0, 4, %i0
   12688:	d4 02 00 18 	ld  [ %o0 + %i0 ], %o2
   1268c:	80 a2 a0 00 	cmp  %o2, 0
   12690:	22 80 00 0a 	be,a   126b8 <keys_destruct+0x6c>
   12694:	b0 06 20 04 	add  %i0, 4, %i0
   12698:	80 a2 a0 01 	cmp  %o2, 1
   1269c:	22 80 00 05 	be,a   126b0 <keys_destruct+0x64>
   126a0:	d0 06 60 0c 	ld  [ %i1 + 0xc ], %o0
   126a4:	9f c2 80 00 	call  %o2
   126a8:	90 10 00 09 	mov  %o1, %o0
   126ac:	d0 06 60 0c 	ld  [ %i1 + 0xc ], %o0
   126b0:	c0 22 00 18 	clr  [ %o0 + %i0 ]
   126b4:	b0 06 20 04 	add  %i0, 4, %i0
   126b8:	d0 06 60 00 	ld  [ %i1 ], %o0
   126bc:	b4 06 a0 01 	inc  %i2
   126c0:	80 a6 80 08 	cmp  %i2, %o0
   126c4:	2a bf ff ec 	bcs,a   12674 <keys_destruct+0x28>
   126c8:	d0 06 60 0c 	ld  [ %i1 + 0xc ], %o0
   126cc:	81 c7 e0 08 	ret 
   126d0:	81 e8 00 00 	restore 

00000000000126d4 <_libc_thr_keycreate>:
   126d4:	9d e3 bf a0 	save  %sp, -96, %sp
   126d8:	11 00 00 9f 	sethi  %hi(0x27c00), %o0
   126dc:	b8 10 00 18 	mov  %i0, %i4
   126e0:	f0 02 22 84 	ld  [ %o0 + 0x284 ], %i0
   126e4:	b6 10 00 19 	mov  %i1, %i3
   126e8:	b2 02 22 84 	add  %o0, 0x284, %i1
   126ec:	f4 06 7f fc 	ld  [ %i1 + -4 ], %i2
   126f0:	80 a6 20 00 	cmp  %i0, 0
   126f4:	32 80 00 08 	bne,a   12714 <_libc_thr_keycreate+0x40>
   126f8:	d0 06 7f f8 	ld  [ %i1 + -8 ], %o0
   126fc:	11 00 00 49 	sethi  %hi(0x12400), %o0
   12700:	7f ff f6 b6 	call  101d8 <atexit>
   12704:	90 02 22 4c 	add  %o0, 0x24c, %o0	! 1264c <keys_destruct>
   12708:	f4 06 7f fc 	ld  [ %i1 + -4 ], %i2
   1270c:	f0 06 60 00 	ld  [ %i1 ], %i0
   12710:	d0 06 7f f8 	ld  [ %i1 + -8 ], %o0
   12714:	80 a2 00 1a 	cmp  %o0, %i2
   12718:	0a 80 00 18 	bcs  12778 <_libc_thr_keycreate+0xa4>
   1271c:	80 a6 a0 00 	cmp  %i2, 0
   12720:	12 80 00 05 	bne  12734 <_libc_thr_keycreate+0x60>
   12724:	b5 2e a0 01 	sll  %i2, 1, %i2
   12728:	b4 10 20 01 	mov  1, %i2
   1272c:	10 80 00 03 	b  12738 <_libc_thr_keycreate+0x64>
   12730:	bb 2e a0 02 	sll  %i2, 2, %i5
   12734:	bb 2e a0 02 	sll  %i2, 2, %i5
   12738:	90 10 00 18 	mov  %i0, %o0
   1273c:	40 00 01 4a 	call  12c64 <realloc>
   12740:	92 10 00 1d 	mov  %i5, %o1
   12744:	b0 10 00 08 	mov  %o0, %i0
   12748:	d0 06 60 04 	ld  [ %i1 + 4 ], %o0
   1274c:	40 00 01 46 	call  12c64 <realloc>
   12750:	92 10 00 1d 	mov  %i5, %o1
   12754:	80 a6 20 00 	cmp  %i0, 0
   12758:	22 80 00 16 	be,a   127b0 <_libc_thr_keycreate+0xdc>
   1275c:	90 10 20 0c 	mov  0xc, %o0
   12760:	90 90 00 08 	orcc  %g0, %o0, %o0
   12764:	22 80 00 13 	be,a   127b0 <_libc_thr_keycreate+0xdc>
   12768:	90 10 20 0c 	mov  0xc, %o0
   1276c:	d0 26 60 04 	st  %o0, [ %i1 + 4 ]
   12770:	10 80 00 03 	b  1277c <_libc_thr_keycreate+0xa8>
   12774:	f0 26 60 00 	st  %i0, [ %i1 ]
   12778:	f0 26 60 00 	st  %i0, [ %i1 ]
   1277c:	d0 06 7f f8 	ld  [ %i1 + -8 ], %o0
   12780:	f4 26 7f fc 	st  %i2, [ %i1 + -4 ]
   12784:	91 2a 20 02 	sll  %o0, 2, %o0
   12788:	f6 26 00 08 	st  %i3, [ %i0 + %o0 ]
   1278c:	d2 06 7f f8 	ld  [ %i1 + -8 ], %o1
   12790:	d0 06 60 04 	ld  [ %i1 + 4 ], %o0
   12794:	93 2a 60 02 	sll  %o1, 2, %o1
   12798:	c0 22 00 09 	clr  [ %o0 + %o1 ]
   1279c:	d0 06 7f f8 	ld  [ %i1 + -8 ], %o0
   127a0:	90 02 20 01 	inc  %o0
   127a4:	d0 26 7f f8 	st  %o0, [ %i1 + -8 ]
   127a8:	d0 27 20 00 	st  %o0, [ %i4 ]
   127ac:	90 10 20 00 	clr  %o0
   127b0:	81 c7 e0 08 	ret 
   127b4:	91 e8 00 08 	restore  %g0, %o0, %o0

00000000000127b8 <_libc_thr_key_delete>:
   127b8:	82 90 00 08 	orcc  %g0, %o0, %g1
   127bc:	02 80 00 15 	be  12810 <_libc_thr_key_delete+0x58>
   127c0:	1b 00 00 9f 	sethi  %hi(0x27c00), %o5
   127c4:	da 03 62 7c 	ld  [ %o5 + 0x27c ], %o5	! 27e7c <_libc_tsd_common>
   127c8:	83 2a 20 02 	sll  %o0, 2, %g1
   127cc:	80 a2 00 0d 	cmp  %o0, %o5
   127d0:	18 80 00 10 	bgu  12810 <_libc_thr_key_delete+0x58>
   127d4:	1b 00 00 9f 	sethi  %hi(0x27c00), %o5
   127d8:	9a 03 62 84 	add  %o5, 0x284, %o5	! 27e84 <_libc_tsd_common+0x8>
   127dc:	da 03 60 00 	ld  [ %o5 ], %o5
   127e0:	82 03 40 01 	add  %o5, %g1, %g1
   127e4:	da 00 7f fc 	ld  [ %g1 + -4 ], %o5
   127e8:	80 a3 60 01 	cmp  %o5, 1
   127ec:	12 80 00 05 	bne  12800 <_libc_thr_key_delete+0x48>
   127f0:	9a 10 20 01 	mov  1, %o5
   127f4:	82 10 20 16 	mov  0x16, %g1
   127f8:	81 c3 e0 08 	retl 
   127fc:	90 10 00 01 	mov  %g1, %o0
   12800:	da 20 7f fc 	st  %o5, [ %g1 + -4 ]
   12804:	82 10 20 00 	clr  %g1
   12808:	81 c3 e0 08 	retl 
   1280c:	90 10 00 01 	mov  %g1, %o0
   12810:	82 10 20 16 	mov  0x16, %g1
   12814:	81 c3 e0 08 	retl 
   12818:	90 10 00 01 	mov  %g1, %o0

000000000001281c <_libc_thr_getspecific>:
   1281c:	82 90 00 08 	orcc  %g0, %o0, %g1
   12820:	02 80 00 19 	be  12884 <_libc_thr_getspecific+0x68>
   12824:	19 00 00 9f 	sethi  %hi(0x27c00), %o4
   12828:	d8 03 22 7c 	ld  [ %o4 + 0x27c ], %o4	! 27e7c <_libc_tsd_common>
   1282c:	80 a2 00 0c 	cmp  %o0, %o4
   12830:	18 80 00 15 	bgu  12884 <_libc_thr_getspecific+0x68>
   12834:	83 2a 20 02 	sll  %o0, 2, %g1
   12838:	19 00 00 9f 	sethi  %hi(0x27c00), %o4
   1283c:	98 03 22 84 	add  %o4, 0x284, %o4	! 27e84 <_libc_tsd_common+0x8>
   12840:	d8 03 20 00 	ld  [ %o4 ], %o4
   12844:	98 03 00 01 	add  %o4, %g1, %o4
   12848:	d8 03 3f fc 	ld  [ %o4 + -4 ], %o4
   1284c:	80 a3 20 01 	cmp  %o4, 1
   12850:	12 80 00 05 	bne  12864 <_libc_thr_getspecific+0x48>
   12854:	19 00 00 9f 	sethi  %hi(0x27c00), %o4
   12858:	82 10 20 16 	mov  0x16, %g1
   1285c:	81 c3 e0 08 	retl 
   12860:	90 10 00 01 	mov  %g1, %o0
   12864:	98 03 22 88 	add  %o4, 0x288, %o4
   12868:	d8 03 20 00 	ld  [ %o4 ], %o4
   1286c:	82 03 00 01 	add  %o4, %g1, %g1
   12870:	c2 00 7f fc 	ld  [ %g1 + -4 ], %g1
   12874:	c2 22 60 00 	st  %g1, [ %o1 ]
   12878:	82 10 20 00 	clr  %g1
   1287c:	81 c3 e0 08 	retl 
   12880:	90 10 00 01 	mov  %g1, %o0
   12884:	82 10 20 16 	mov  0x16, %g1
   12888:	81 c3 e0 08 	retl 
   1288c:	90 10 00 01 	mov  %g1, %o0

0000000000012890 <_libc_thr_setspecific>:
   12890:	82 90 00 08 	orcc  %g0, %o0, %g1
   12894:	02 80 00 18 	be  128f4 <_libc_thr_setspecific+0x64>
   12898:	19 00 00 9f 	sethi  %hi(0x27c00), %o4
   1289c:	d8 03 22 7c 	ld  [ %o4 + 0x27c ], %o4	! 27e7c <_libc_tsd_common>
   128a0:	80 a2 00 0c 	cmp  %o0, %o4
   128a4:	18 80 00 14 	bgu  128f4 <_libc_thr_setspecific+0x64>
   128a8:	83 2a 20 02 	sll  %o0, 2, %g1
   128ac:	19 00 00 9f 	sethi  %hi(0x27c00), %o4
   128b0:	98 03 22 84 	add  %o4, 0x284, %o4	! 27e84 <_libc_tsd_common+0x8>
   128b4:	d8 03 20 00 	ld  [ %o4 ], %o4
   128b8:	98 03 00 01 	add  %o4, %g1, %o4
   128bc:	d8 03 3f fc 	ld  [ %o4 + -4 ], %o4
   128c0:	80 a3 20 01 	cmp  %o4, 1
   128c4:	12 80 00 05 	bne  128d8 <_libc_thr_setspecific+0x48>
   128c8:	19 00 00 9f 	sethi  %hi(0x27c00), %o4
   128cc:	82 10 20 16 	mov  0x16, %g1
   128d0:	81 c3 e0 08 	retl 
   128d4:	90 10 00 01 	mov  %g1, %o0
   128d8:	98 03 22 88 	add  %o4, 0x288, %o4
   128dc:	d8 03 20 00 	ld  [ %o4 ], %o4
   128e0:	82 03 00 01 	add  %o4, %g1, %g1
   128e4:	d2 20 7f fc 	st  %o1, [ %g1 + -4 ]
   128e8:	82 10 20 00 	clr  %g1
   128ec:	81 c3 e0 08 	retl 
   128f0:	90 10 00 01 	mov  %g1, %o0
   128f4:	82 10 20 16 	mov  0x16, %g1
   128f8:	81 c3 e0 08 	retl 
   128fc:	90 10 00 01 	mov  %g1, %o0

0000000000012900 <_libc_pthread_getspecific>:
   12900:	9d e3 bf 98 	save  %sp, -104, %sp
   12904:	90 10 00 18 	mov  %i0, %o0
   12908:	7f ff ff c5 	call  1281c <_libc_thr_getspecific>
   1290c:	92 07 bf fc 	add  %fp, -4, %o1
   12910:	80 90 00 08 	tst  %o0
   12914:	d0 07 bf fc 	ld  [ %fp + -4 ], %o0
   12918:	32 80 00 02 	bne,a   12920 <_libc_pthread_getspecific+0x20>
   1291c:	90 10 20 00 	clr  %o0
   12920:	81 c7 e0 08 	ret 
   12924:	91 e8 00 08 	restore  %g0, %o0, %o0

0000000000012928 <_smalloc>:
   12928:	9d e3 bf a0 	save  %sp, -96, %sp
   1292c:	b0 90 00 18 	orcc  %g0, %i0, %i0
   12930:	22 80 00 02 	be,a   12938 <_smalloc+0x10>
   12934:	b0 10 20 08 	mov  8, %i0
   12938:	91 36 20 03 	srl  %i0, 3, %o0
   1293c:	90 22 20 01 	dec  %o0
   12940:	b5 2a 20 02 	sll  %o0, 2, %i2
   12944:	11 00 00 9f 	sethi  %hi(0x27c00), %o0
   12948:	b2 02 21 58 	add  %o0, 0x158, %i1	! 27d58 <List>
   1294c:	d2 06 80 19 	ld  [ %i2 + %i1 ], %o1
   12950:	80 a2 60 00 	cmp  %o1, 0
   12954:	12 80 00 15 	bne  129a8 <_smalloc+0x80>
   12958:	90 06 20 08 	add  %i0, 8, %o0
   1295c:	40 00 00 27 	call  129f8 <_malloc_unlocked>
   12960:	91 2a 20 06 	sll  %o0, 6, %o0
   12964:	90 90 00 08 	orcc  %g0, %o0, %o0
   12968:	12 80 00 04 	bne  12978 <_smalloc+0x50>
   1296c:	d0 26 80 19 	st  %o0, [ %i2 + %i1 ]
   12970:	81 c7 e0 08 	ret 
   12974:	91 e8 20 00 	restore  %g0, 0, %o0
   12978:	94 10 20 00 	clr  %o2
   1297c:	92 10 00 08 	mov  %o0, %o1
   12980:	f0 22 20 00 	st  %i0, [ %o0 ]
   12984:	90 02 00 18 	add  %o0, %i0, %o0
   12988:	94 02 a0 01 	inc  %o2
   1298c:	90 02 20 08 	add  %o0, 8, %o0
   12990:	d0 22 60 08 	st  %o0, [ %o1 + 8 ]
   12994:	80 a2 a0 40 	cmp  %o2, 0x40
   12998:	2a bf ff fa 	bcs,a   12980 <_smalloc+0x58>
   1299c:	92 10 00 08 	mov  %o0, %o1
   129a0:	c0 22 60 08 	clr  [ %o1 + 8 ]
   129a4:	d2 06 80 19 	ld  [ %i2 + %i1 ], %o1
   129a8:	d0 02 60 08 	ld  [ %o1 + 8 ], %o0
   129ac:	d0 26 80 19 	st  %o0, [ %i2 + %i1 ]
   129b0:	d0 02 60 00 	ld  [ %o1 ], %o0
   129b4:	90 12 20 01 	or  %o0, 1, %o0
   129b8:	d0 22 60 00 	st  %o0, [ %o1 ]
   129bc:	90 02 60 08 	add  %o1, 8, %o0
   129c0:	81 c7 e0 08 	ret 
   129c4:	91 e8 00 08 	restore  %g0, %o0, %o0

00000000000129c8 <malloc>:
   129c8:	9d e3 bf a0 	save  %sp, -96, %sp
   129cc:	11 00 00 9e 	sethi  %hi(0x27800), %o0
   129d0:	a0 02 22 90 	add  %o0, 0x290, %l0	! 27a90 <__malloc_lock>
   129d4:	7f ff f7 a0 	call  10854 <_mutex_lock>
   129d8:	90 10 00 10 	mov  %l0, %o0
   129dc:	40 00 00 07 	call  129f8 <_malloc_unlocked>
   129e0:	90 10 00 18 	mov  %i0, %o0
   129e4:	b0 10 00 08 	mov  %o0, %i0
   129e8:	7f ff f7 a0 	call  10868 <_mutex_unlock>
   129ec:	90 10 00 10 	mov  %l0, %o0
   129f0:	81 c7 e0 08 	ret 
   129f4:	81 e8 00 00 	restore 

00000000000129f8 <_malloc_unlocked>:
   129f8:	9d e3 bf a0 	save  %sp, -96, %sp
   129fc:	90 8e 20 07 	andcc  %i0, 7, %o0
   12a00:	b4 10 00 18 	mov  %i0, %i2
   12a04:	02 80 00 05 	be  12a18 <_malloc_unlocked+0x20>
   12a08:	15 00 00 9f 	sethi  %hi(0x27c00), %o2
   12a0c:	90 20 00 08 	neg  %o0
   12a10:	90 02 20 08 	add  %o0, 8, %o0
   12a14:	b4 06 00 08 	add  %i0, %o0, %i2
   12a18:	d6 02 a1 ec 	ld  [ %o2 + 0x1ec ], %o3
   12a1c:	03 00 00 9f 	sethi  %hi(0x27c00), %g1
   12a20:	80 a2 e0 00 	cmp  %o3, 0
   12a24:	02 80 00 24 	be  12ab4 <_malloc_unlocked+0xbc>
   12a28:	13 00 00 9f 	sethi  %hi(0x27c00), %o1
   12a2c:	d0 02 ff f8 	ld  [ %o3 + -8 ], %o0
   12a30:	9a 0a 3f fc 	and  %o0, -4, %o5
   12a34:	80 a3 40 1a 	cmp  %o5, %i2
   12a38:	12 80 00 0b 	bne  12a64 <_malloc_unlocked+0x6c>
   12a3c:	d8 02 61 68 	ld  [ %o1 + 0x168 ], %o4
   12a40:	c0 22 a1 ec 	clr  [ %o2 + 0x1ec ]
   12a44:	90 03 20 1f 	add  %o4, 0x1f, %o0
   12a48:	90 0a 20 1f 	and  %o0, 0x1f, %o0
   12a4c:	d0 22 61 68 	st  %o0, [ %o1 + 0x168 ]
   12a50:	92 00 61 6c 	add  %g1, 0x16c, %o1
   12a54:	91 2a 20 02 	sll  %o0, 2, %o0
   12a58:	c0 22 00 09 	clr  [ %o0 + %o1 ]
   12a5c:	81 c7 e0 08 	ret 
   12a60:	91 e8 00 0b 	restore  %g0, %o3, %o0
   12a64:	80 a6 a0 28 	cmp  %i2, 0x28
   12a68:	0a 80 00 14 	bcs  12ab8 <_malloc_unlocked+0xc0>
   12a6c:	b8 10 20 00 	clr  %i4
   12a70:	80 a3 40 1a 	cmp  %o5, %i2
   12a74:	08 80 00 11 	bleu  12ab8 <_malloc_unlocked+0xc0>
   12a78:	b8 10 20 00 	clr  %i4
   12a7c:	90 03 20 1f 	add  %o4, 0x1f, %o0
   12a80:	c0 22 a1 ec 	clr  [ %o2 + 0x1ec ]
   12a84:	03 00 00 9f 	sethi  %hi(0x27c00), %g1
   12a88:	90 0a 20 1f 	and  %o0, 0x1f, %o0
   12a8c:	d0 22 61 68 	st  %o0, [ %o1 + 0x168 ]
   12a90:	92 00 61 6c 	add  %g1, 0x16c, %o1
   12a94:	91 2a 20 02 	sll  %o0, 2, %o0
   12a98:	b6 22 e0 08 	sub  %o3, 8, %i3
   12a9c:	c0 22 00 09 	clr  [ %o0 + %o1 ]
   12aa0:	d0 02 ff f8 	ld  [ %o3 + -8 ], %o0
   12aa4:	da 22 ff f8 	st  %o5, [ %o3 + -8 ]
   12aa8:	b8 0a 20 02 	and  %o0, 2, %i4
   12aac:	10 80 00 52 	b  12bf4 <_malloc_unlocked+0x1fc>
   12ab0:	d4 06 e0 00 	ld  [ %i3 ], %o2
   12ab4:	b8 10 20 00 	clr  %i4
   12ab8:	40 00 03 80 	call  138b8 <cleanfree>
   12abc:	90 10 20 00 	clr  %o0
   12ac0:	80 a6 a0 28 	cmp  %i2, 0x28
   12ac4:	1a 80 00 04 	bcc  12ad4 <_malloc_unlocked+0xdc>
   12ac8:	b6 10 20 00 	clr  %i3
   12acc:	7f ff ff 97 	call  12928 <_smalloc>
   12ad0:	91 e8 00 1a 	restore  %g0, %i2, %o0
   12ad4:	11 00 00 9f 	sethi  %hi(0x27c00), %o0
   12ad8:	f2 02 21 f8 	ld  [ %o0 + 0x1f8 ], %i1	! 27df8 <Root>
   12adc:	90 10 20 00 	clr  %o0
   12ae0:	80 a6 60 00 	cmp  %i1, 0
   12ae4:	02 80 00 28 	be  12b84 <_malloc_unlocked+0x18c>
   12ae8:	80 a6 e0 00 	cmp  %i3, 0
   12aec:	d2 06 60 00 	ld  [ %i1 ], %o1
   12af0:	80 a2 40 1a 	cmp  %o1, %i2
   12af4:	0a 80 00 0f 	bcs  12b30 <_malloc_unlocked+0x138>
   12af8:	80 a2 20 00 	cmp  %o0, 0
   12afc:	02 80 00 04 	be  12b0c <_malloc_unlocked+0x114>
   12b00:	80 a2 00 09 	cmp  %o0, %o1
   12b04:	2a 80 00 05 	bcs,a   12b18 <_malloc_unlocked+0x120>
   12b08:	d2 06 60 10 	ld  [ %i1 + 0x10 ], %o1
   12b0c:	90 10 00 09 	mov  %o1, %o0
   12b10:	d2 06 60 10 	ld  [ %i1 + 0x10 ], %o1
   12b14:	b6 10 00 19 	mov  %i1, %i3
   12b18:	80 a2 60 00 	cmp  %o1, 0
   12b1c:	02 80 00 0c 	be  12b4c <_malloc_unlocked+0x154>
   12b20:	80 a6 e0 00 	cmp  %i3, 0
   12b24:	b2 10 00 09 	mov  %o1, %i1
   12b28:	10 bf ff f2 	b  12af0 <_malloc_unlocked+0xf8>
   12b2c:	d2 06 60 00 	ld  [ %i1 ], %o1
   12b30:	d2 06 60 18 	ld  [ %i1 + 0x18 ], %o1
   12b34:	80 a2 60 00 	cmp  %o1, 0
   12b38:	02 80 00 05 	be  12b4c <_malloc_unlocked+0x154>
   12b3c:	80 a6 e0 00 	cmp  %i3, 0
   12b40:	b2 10 00 09 	mov  %o1, %i1
   12b44:	10 bf ff eb 	b  12af0 <_malloc_unlocked+0xf8>
   12b48:	d2 06 60 00 	ld  [ %i1 ], %o1
   12b4c:	02 80 00 06 	be  12b64 <_malloc_unlocked+0x16c>
   12b50:	31 00 00 9f 	sethi  %hi(0x27c00), %i0
   12b54:	40 00 02 2e 	call  1340c <t_delete>
   12b58:	90 10 00 1b 	mov  %i3, %o0
   12b5c:	10 80 00 0a 	b  12b84 <_malloc_unlocked+0x18c>
   12b60:	80 a6 e0 00 	cmp  %i3, 0
   12b64:	d0 06 21 f8 	ld  [ %i0 + 0x1f8 ], %o0
   12b68:	80 a6 40 08 	cmp  %i1, %o0
   12b6c:	02 80 00 06 	be  12b84 <_malloc_unlocked+0x18c>
   12b70:	80 a6 e0 00 	cmp  %i3, 0
   12b74:	40 00 02 97 	call  135d0 <t_splay>
   12b78:	90 10 00 19 	mov  %i1, %o0
   12b7c:	f2 26 21 f8 	st  %i1, [ %i0 + 0x1f8 ]
   12b80:	80 a6 e0 00 	cmp  %i3, 0
   12b84:	12 80 00 16 	bne  12bdc <_malloc_unlocked+0x1e4>
   12b88:	11 00 00 9f 	sethi  %hi(0x27c00), %o0
   12b8c:	d2 02 21 f4 	ld  [ %o0 + 0x1f4 ], %o1	! 27df4 <Bottom>
   12b90:	80 a2 60 00 	cmp  %o1, 0
   12b94:	02 80 00 0b 	be  12bc0 <_malloc_unlocked+0x1c8>
   12b98:	01 00 00 00 	nop 
   12b9c:	d0 02 60 00 	ld  [ %o1 ], %o0
   12ba0:	b6 10 00 09 	mov  %o1, %i3
   12ba4:	80 a6 80 08 	cmp  %i2, %o0
   12ba8:	18 80 00 06 	bgu  12bc0 <_malloc_unlocked+0x1c8>
   12bac:	01 00 00 00 	nop 
   12bb0:	90 0a 3f fc 	and  %o0, -4, %o0
   12bb4:	d0 22 60 00 	st  %o0, [ %o1 ]
   12bb8:	10 80 00 0a 	b  12be0 <_malloc_unlocked+0x1e8>
   12bbc:	d0 06 e0 00 	ld  [ %i3 ], %o0
   12bc0:	40 00 01 a1 	call  13244 <_morecore>
   12bc4:	90 10 00 1a 	mov  %i2, %o0
   12bc8:	b6 90 00 08 	orcc  %g0, %o0, %i3
   12bcc:	32 80 00 05 	bne,a   12be0 <_malloc_unlocked+0x1e8>
   12bd0:	d0 06 e0 00 	ld  [ %i3 ], %o0
   12bd4:	81 c7 e0 08 	ret 
   12bd8:	91 e8 20 00 	restore  %g0, 0, %o0
   12bdc:	d0 06 e0 00 	ld  [ %i3 ], %o0
   12be0:	90 06 c0 08 	add  %i3, %o0, %o0
   12be4:	d2 02 20 08 	ld  [ %o0 + 8 ], %o1
   12be8:	92 0a 7f fd 	and  %o1, -3, %o1
   12bec:	d2 22 20 08 	st  %o1, [ %o0 + 8 ]
   12bf0:	d4 06 e0 00 	ld  [ %i3 ], %o2
   12bf4:	90 22 80 1a 	sub  %o2, %i2, %o0
   12bf8:	80 a2 20 30 	cmp  %o0, 0x30
   12bfc:	0a 80 00 0b 	bcs  12c28 <_malloc_unlocked+0x230>
   12c00:	92 22 20 08 	sub  %o0, 8, %o1
   12c04:	f4 26 e0 00 	st  %i2, [ %i3 ]
   12c08:	90 06 c0 1a 	add  %i3, %i2, %o0
   12c0c:	92 12 60 01 	or  %o1, 1, %o1
   12c10:	d2 22 20 08 	st  %o1, [ %o0 + 8 ]
   12c14:	40 00 00 f6 	call  12fec <realfree>
   12c18:	90 02 20 10 	add  %o0, 0x10, %o0
   12c1c:	d4 06 e0 00 	ld  [ %i3 ], %o2
   12c20:	10 80 00 0c 	b  12c50 <_malloc_unlocked+0x258>
   12c24:	90 17 20 01 	or  %i4, 1, %o0
   12c28:	11 00 00 9f 	sethi  %hi(0x27c00), %o0
   12c2c:	92 06 c0 0a 	add  %i3, %o2, %o1
   12c30:	d0 02 21 f0 	ld  [ %o0 + 0x1f0 ], %o0
   12c34:	92 02 60 10 	add  %o1, 0x10, %o1
   12c38:	80 a2 40 08 	cmp  %o1, %o0
   12c3c:	12 80 00 05 	bne  12c50 <_malloc_unlocked+0x258>
   12c40:	90 17 20 01 	or  %i4, 1, %o0
   12c44:	11 00 00 9f 	sethi  %hi(0x27c00), %o0
   12c48:	c0 22 21 f4 	clr  [ %o0 + 0x1f4 ]	! 27df4 <Bottom>
   12c4c:	90 17 20 01 	or  %i4, 1, %o0
   12c50:	90 12 80 08 	or  %o2, %o0, %o0
   12c54:	d0 26 e0 00 	st  %o0, [ %i3 ]
   12c58:	96 06 e0 08 	add  %i3, 8, %o3
   12c5c:	81 c7 e0 08 	ret 
   12c60:	91 e8 00 0b 	restore  %g0, %o3, %o0

0000000000012c64 <realloc>:
   12c64:	9d e3 bf a0 	save  %sp, -96, %sp
   12c68:	11 00 00 9e 	sethi  %hi(0x27800), %o0
   12c6c:	b8 10 00 18 	mov  %i0, %i4
   12c70:	b0 02 22 90 	add  %o0, 0x290, %i0
   12c74:	b6 10 00 19 	mov  %i1, %i3
   12c78:	7f ff f6 f7 	call  10854 <_mutex_lock>
   12c7c:	90 10 00 18 	mov  %i0, %o0
   12c80:	80 a7 20 00 	cmp  %i4, 0
   12c84:	12 80 00 09 	bne  12ca8 <realloc+0x44>
   12c88:	01 00 00 00 	nop 
   12c8c:	7f ff ff 5b 	call  129f8 <_malloc_unlocked>
   12c90:	90 10 00 19 	mov  %i1, %o0
   12c94:	a2 10 00 08 	mov  %o0, %l1
   12c98:	7f ff f6 f4 	call  10868 <_mutex_unlock>
   12c9c:	90 10 00 18 	mov  %i0, %o0
   12ca0:	81 c7 e0 08 	ret 
   12ca4:	91 e8 00 11 	restore  %g0, %l1, %o0
   12ca8:	40 00 03 04 	call  138b8 <cleanfree>
   12cac:	90 10 00 1c 	mov  %i4, %o0
   12cb0:	90 8e 60 07 	andcc  %i1, 7, %o0
   12cb4:	02 80 00 05 	be  12cc8 <realloc+0x64>
   12cb8:	fa 07 3f f8 	ld  [ %i4 + -8 ], %i5
   12cbc:	90 20 00 08 	neg  %o0
   12cc0:	90 02 20 08 	add  %o0, 8, %o0
   12cc4:	b6 06 40 08 	add  %i1, %o0, %i3
   12cc8:	80 8f 60 01 	btst  1, %i5
   12ccc:	12 80 00 06 	bne  12ce4 <realloc+0x80>
   12cd0:	92 0f 7f fc 	and  %i5, -4, %o1
   12cd4:	7f ff f6 e5 	call  10868 <_mutex_unlock>
   12cd8:	90 10 00 18 	mov  %i0, %o0
   12cdc:	81 c7 e0 08 	ret 
   12ce0:	91 e8 20 00 	restore  %g0, 0, %o0
   12ce4:	80 a6 c0 09 	cmp  %i3, %o1
   12ce8:	12 80 00 07 	bne  12d04 <realloc+0xa0>
   12cec:	d2 27 3f f8 	st  %o1, [ %i4 + -8 ]
   12cf0:	fa 27 3f f8 	st  %i5, [ %i4 + -8 ]
   12cf4:	7f ff f6 dd 	call  10868 <_mutex_unlock>
   12cf8:	90 10 00 18 	mov  %i0, %o0
   12cfc:	81 c7 e0 08 	ret 
   12d00:	91 e8 00 1c 	restore  %g0, %i4, %o0
   12d04:	a2 27 20 08 	sub  %i4, 8, %l1
   12d08:	b2 10 00 1d 	mov  %i5, %i1
   12d0c:	b4 10 00 11 	mov  %l1, %i2
   12d10:	80 a6 e0 28 	cmp  %i3, 0x28
   12d14:	0a 80 00 44 	bcs  12e24 <realloc+0x1c0>
   12d18:	94 10 00 09 	mov  %o1, %o2
   12d1c:	80 a2 60 28 	cmp  %o1, 0x28
   12d20:	0a 80 00 42 	bcs  12e28 <realloc+0x1c4>
   12d24:	a0 0f 60 03 	and  %i5, 3, %l0
   12d28:	80 a6 c0 09 	cmp  %i3, %o1
   12d2c:	08 80 00 3a 	bleu  12e14 <realloc+0x1b0>
   12d30:	80 a6 c0 0a 	cmp  %i3, %o2
   12d34:	a0 04 40 09 	add  %l1, %o1, %l0
   12d38:	d0 04 20 08 	ld  [ %l0 + 8 ], %o0
   12d3c:	b0 04 20 08 	add  %l0, 8, %i0
   12d40:	80 8a 20 01 	btst  1, %o0
   12d44:	12 80 00 15 	bne  12d98 <realloc+0x134>
   12d48:	80 a6 c0 0a 	cmp  %i3, %o2
   12d4c:	90 02 20 08 	add  %o0, 8, %o0
   12d50:	90 02 40 08 	add  %o1, %o0, %o0
   12d54:	d0 27 3f f8 	st  %o0, [ %i4 + -8 ]
   12d58:	13 00 00 9f 	sethi  %hi(0x27c00), %o1
   12d5c:	d0 02 61 f4 	ld  [ %o1 + 0x1f4 ], %o0	! 27df4 <Bottom>
   12d60:	80 a6 00 08 	cmp  %i0, %o0
   12d64:	22 80 00 06 	be,a   12d7c <realloc+0x118>
   12d68:	c0 22 61 f4 	clr  [ %o1 + 0x1f4 ]
   12d6c:	40 00 01 a8 	call  1340c <t_delete>
   12d70:	90 10 00 18 	mov  %i0, %o0
   12d74:	10 80 00 03 	b  12d80 <realloc+0x11c>
   12d78:	d0 04 20 08 	ld  [ %l0 + 8 ], %o0
   12d7c:	d0 04 20 08 	ld  [ %l0 + 8 ], %o0
   12d80:	90 06 00 08 	add  %i0, %o0, %o0
   12d84:	d2 02 20 08 	ld  [ %o0 + 8 ], %o1
   12d88:	92 0a 7f fd 	and  %o1, -3, %o1
   12d8c:	d2 22 20 08 	st  %o1, [ %o0 + 8 ]
   12d90:	d4 07 3f f8 	ld  [ %i4 + -8 ], %o2
   12d94:	80 a6 c0 0a 	cmp  %i3, %o2
   12d98:	08 80 00 1f 	bleu  12e14 <realloc+0x1b0>
   12d9c:	80 a6 c0 0a 	cmp  %i3, %o2
   12da0:	31 00 00 9f 	sethi  %hi(0x27c00), %i0
   12da4:	d0 06 21 f0 	ld  [ %i0 + 0x1f0 ], %o0	! 27df0 <Baddr>
   12da8:	92 04 40 0a 	add  %l1, %o2, %o1
   12dac:	92 02 60 10 	add  %o1, 0x10, %o1
   12db0:	80 a2 40 08 	cmp  %o1, %o0
   12db4:	12 80 00 18 	bne  12e14 <realloc+0x1b0>
   12db8:	80 a6 c0 0a 	cmp  %i3, %o2
   12dbc:	40 00 08 b3 	call  15088 <_sbrk>
   12dc0:	90 10 20 00 	clr  %o0
   12dc4:	d2 06 21 f0 	ld  [ %i0 + 0x1f0 ], %o1
   12dc8:	80 a2 00 09 	cmp  %o0, %o1
   12dcc:	12 80 00 10 	bne  12e0c <realloc+0x1a8>
   12dd0:	31 00 00 9f 	sethi  %hi(0x27c00), %i0
   12dd4:	e2 26 21 f4 	st  %l1, [ %i0 + 0x1f4 ]	! 27df4 <Bottom>
   12dd8:	40 00 01 1b 	call  13244 <_morecore>
   12ddc:	90 10 00 1b 	mov  %i3, %o0
   12de0:	90 90 00 08 	orcc  %g0, %o0, %o0
   12de4:	12 80 00 06 	bne  12dfc <realloc+0x198>
   12de8:	f4 06 21 f4 	ld  [ %i0 + 0x1f4 ], %i2
   12dec:	c0 26 21 f4 	clr  [ %i0 + 0x1f4 ]
   12df0:	d4 06 a0 00 	ld  [ %i2 ], %o2
   12df4:	10 80 00 08 	b  12e14 <realloc+0x1b0>
   12df8:	80 a6 c0 0a 	cmp  %i3, %o2
   12dfc:	d4 02 20 00 	ld  [ %o0 ], %o2
   12e00:	b4 10 00 08 	mov  %o0, %i2
   12e04:	10 80 00 04 	b  12e14 <realloc+0x1b0>
   12e08:	80 a6 c0 0a 	cmp  %i3, %o2
   12e0c:	d4 07 3f f8 	ld  [ %i4 + -8 ], %o2
   12e10:	80 a6 c0 0a 	cmp  %i3, %o2
   12e14:	18 80 00 05 	bgu  12e28 <realloc+0x1c4>
   12e18:	a0 0f 60 03 	and  %i5, 3, %l0
   12e1c:	10 80 00 52 	b  12f64 <realloc+0x300>
   12e20:	90 22 80 1b 	sub  %o2, %i3, %o0
   12e24:	a0 0f 60 03 	and  %i5, 3, %l0
   12e28:	90 12 80 10 	or  %o2, %l0, %o0
   12e2c:	d0 26 a0 00 	st  %o0, [ %i2 ]
   12e30:	7f ff fe f2 	call  129f8 <_malloc_unlocked>
   12e34:	90 10 00 1b 	mov  %i3, %o0
   12e38:	a2 90 00 08 	orcc  %g0, %o0, %l1
   12e3c:	12 80 00 14 	bne  12e8c <realloc+0x228>
   12e40:	90 0e 7f fc 	and  %i1, -4, %o0
   12e44:	d0 06 a0 00 	ld  [ %i2 ], %o0
   12e48:	92 0a 3f fc 	and  %o0, -4, %o1
   12e4c:	80 a2 60 28 	cmp  %o1, 0x28
   12e50:	1a 80 00 24 	bcc  12ee0 <realloc+0x27c>
   12e54:	d2 26 a0 00 	st  %o1, [ %i2 ]
   12e58:	80 a6 c0 09 	cmp  %i3, %o1
   12e5c:	0a 80 00 1a 	bcs  12ec4 <realloc+0x260>
   12e60:	80 a6 e0 28 	cmp  %i3, 0x28
   12e64:	1a 80 00 5c 	bcc  12fd4 <realloc+0x370>
   12e68:	90 12 40 10 	or  %o1, %l0, %o0
   12e6c:	d0 26 a0 00 	st  %o0, [ %i2 ]
   12e70:	b6 10 20 28 	mov  0x28, %i3
   12e74:	7f ff fe e1 	call  129f8 <_malloc_unlocked>
   12e78:	90 10 20 28 	mov  0x28, %o0
   12e7c:	a2 90 00 08 	orcc  %g0, %o0, %l1
   12e80:	22 bf ff f2 	be,a   12e48 <realloc+0x1e4>
   12e84:	d0 06 a0 00 	ld  [ %i2 ], %o0
   12e88:	90 0e 7f fc 	and  %i1, -4, %o0
   12e8c:	90 a2 00 1b 	subcc  %o0, %i3, %o0
   12e90:	92 60 00 00 	subx  %g0, %g0, %o1
   12e94:	90 0a 40 08 	and  %o1, %o0, %o0
   12e98:	94 02 00 1b 	add  %o0, %i3, %o2
   12e9c:	90 10 00 11 	mov  %l1, %o0
   12ea0:	40 00 03 5a 	call  13c08 <_memcpy>
   12ea4:	92 10 00 1c 	mov  %i4, %o1
   12ea8:	40 00 02 4f 	call  137e4 <_free_unlocked>
   12eac:	90 10 00 1c 	mov  %i4, %o0
   12eb0:	03 00 00 9e 	sethi  %hi(0x27800), %g1
   12eb4:	7f ff f6 6d 	call  10868 <_mutex_unlock>
   12eb8:	90 00 62 90 	add  %g1, 0x290, %o0	! 27a90 <__malloc_lock>
   12ebc:	81 c7 e0 08 	ret 
   12ec0:	91 e8 00 11 	restore  %g0, %l1, %o0
   12ec4:	90 12 40 10 	or  %o1, %l0, %o0
   12ec8:	d0 26 a0 00 	st  %o0, [ %i2 ]
   12ecc:	03 00 00 9e 	sethi  %hi(0x27800), %g1
   12ed0:	7f ff f6 66 	call  10868 <_mutex_unlock>
   12ed4:	90 00 62 90 	add  %g1, 0x290, %o0	! 27a90 <__malloc_lock>
   12ed8:	81 c7 e0 08 	ret 
   12edc:	91 e8 00 1c 	restore  %g0, %i4, %o0
   12ee0:	80 a6 e0 28 	cmp  %i3, 0x28
   12ee4:	1a 80 00 05 	bcc  12ef8 <realloc+0x294>
   12ee8:	94 10 00 09 	mov  %o1, %o2
   12eec:	b6 10 20 28 	mov  0x28, %i3
   12ef0:	10 80 00 1d 	b  12f64 <realloc+0x300>
   12ef4:	90 22 80 1b 	sub  %o2, %i3, %o0
   12ef8:	80 8e 60 02 	btst  2, %i1
   12efc:	02 80 00 36 	be  12fd4 <realloc+0x370>
   12f00:	90 12 40 10 	or  %o1, %l0, %o0
   12f04:	f0 06 bf f8 	ld  [ %i2 + -8 ], %i0
   12f08:	d0 06 20 00 	ld  [ %i0 ], %o0
   12f0c:	90 02 00 09 	add  %o0, %o1, %o0
   12f10:	90 02 20 08 	add  %o0, 8, %o0
   12f14:	80 a2 00 1b 	cmp  %o0, %i3
   12f18:	0a 80 00 2f 	bcs  12fd4 <realloc+0x370>
   12f1c:	90 12 40 10 	or  %o1, %l0, %o0
   12f20:	40 00 01 3b 	call  1340c <t_delete>
   12f24:	90 10 00 18 	mov  %i0, %o0
   12f28:	d0 06 a0 00 	ld  [ %i2 ], %o0
   12f2c:	a0 06 20 08 	add  %i0, 8, %l0
   12f30:	d2 06 20 00 	ld  [ %i0 ], %o1
   12f34:	90 02 20 08 	add  %o0, 8, %o0
   12f38:	90 02 40 08 	add  %o1, %o0, %o0
   12f3c:	d0 26 20 00 	st  %o0, [ %i0 ]
   12f40:	90 10 00 10 	mov  %l0, %o0
   12f44:	d4 06 a0 00 	ld  [ %i2 ], %o2
   12f48:	b4 10 00 18 	mov  %i0, %i2
   12f4c:	40 00 02 7a 	call  13934 <_memmove>
   12f50:	92 10 00 1c 	mov  %i4, %o1
   12f54:	d4 06 20 00 	ld  [ %i0 ], %o2
   12f58:	b8 10 00 10 	mov  %l0, %i4
   12f5c:	a0 0e 60 01 	and  %i1, 1, %l0
   12f60:	90 22 80 1b 	sub  %o2, %i3, %o0
   12f64:	80 a2 20 30 	cmp  %o0, 0x30
   12f68:	0a 80 00 0b 	bcs  12f94 <realloc+0x330>
   12f6c:	92 22 20 08 	sub  %o0, 8, %o1
   12f70:	f6 26 a0 00 	st  %i3, [ %i2 ]
   12f74:	90 06 80 1b 	add  %i2, %i3, %o0
   12f78:	92 12 60 01 	or  %o1, 1, %o1
   12f7c:	d2 22 20 08 	st  %o1, [ %o0 + 8 ]
   12f80:	40 00 00 1b 	call  12fec <realfree>
   12f84:	90 02 20 10 	add  %o0, 0x10, %o0
   12f88:	d4 06 a0 00 	ld  [ %i2 ], %o2
   12f8c:	10 80 00 0c 	b  12fbc <realloc+0x358>
   12f90:	90 12 80 10 	or  %o2, %l0, %o0
   12f94:	11 00 00 9f 	sethi  %hi(0x27c00), %o0
   12f98:	92 06 80 0a 	add  %i2, %o2, %o1
   12f9c:	d0 02 21 f0 	ld  [ %o0 + 0x1f0 ], %o0
   12fa0:	92 02 60 10 	add  %o1, 0x10, %o1
   12fa4:	80 a2 40 08 	cmp  %o1, %o0
   12fa8:	12 80 00 05 	bne  12fbc <realloc+0x358>
   12fac:	90 12 80 10 	or  %o2, %l0, %o0
   12fb0:	11 00 00 9f 	sethi  %hi(0x27c00), %o0
   12fb4:	c0 22 21 f4 	clr  [ %o0 + 0x1f4 ]	! 27df4 <Bottom>
   12fb8:	90 12 80 10 	or  %o2, %l0, %o0
   12fbc:	d0 26 a0 00 	st  %o0, [ %i2 ]
   12fc0:	03 00 00 9e 	sethi  %hi(0x27800), %g1
   12fc4:	7f ff f6 29 	call  10868 <_mutex_unlock>
   12fc8:	90 00 62 90 	add  %g1, 0x290, %o0	! 27a90 <__malloc_lock>
   12fcc:	81 c7 e0 08 	ret 
   12fd0:	91 e8 00 1c 	restore  %g0, %i4, %o0
   12fd4:	d0 26 a0 00 	st  %o0, [ %i2 ]
   12fd8:	03 00 00 9e 	sethi  %hi(0x27800), %g1
   12fdc:	7f ff f6 23 	call  10868 <_mutex_unlock>
   12fe0:	90 00 62 90 	add  %g1, 0x290, %o0	! 27a90 <__malloc_lock>
   12fe4:	81 c7 e0 08 	ret 
   12fe8:	91 e8 20 00 	restore  %g0, 0, %o0

0000000000012fec <realfree>:
   12fec:	9d e3 bf a0 	save  %sp, -96, %sp
   12ff0:	b8 10 00 18 	mov  %i0, %i4
   12ff4:	31 00 00 9f 	sethi  %hi(0x27c00), %i0
   12ff8:	f6 07 3f f8 	ld  [ %i4 + -8 ], %i3
   12ffc:	96 27 20 08 	sub  %i4, 8, %o3
   13000:	03 00 00 9f 	sethi  %hi(0x27c00), %g1
   13004:	d8 06 21 f8 	ld  [ %i0 + 0x1f8 ], %o4
   13008:	92 00 61 58 	add  %g1, 0x158, %o1
   1300c:	80 8e e0 01 	btst  1, %i3
   13010:	22 80 00 8b 	be,a   1323c <realfree+0x250>
   13014:	d8 26 21 f8 	st  %o4, [ %i0 + 0x1f8 ]
   13018:	90 0e ff fc 	and  %i3, -4, %o0
   1301c:	80 a2 20 28 	cmp  %o0, 0x28
   13020:	1a 80 00 0b 	bcc  1304c <realfree+0x60>
   13024:	d0 27 3f f8 	st  %o0, [ %i4 + -8 ]
   13028:	91 32 20 03 	srl  %o0, 3, %o0
   1302c:	d8 26 21 f8 	st  %o4, [ %i0 + 0x1f8 ]
   13030:	90 22 20 01 	dec  %o0
   13034:	91 2a 20 02 	sll  %o0, 2, %o0
   13038:	d4 02 00 09 	ld  [ %o0 + %o1 ], %o2
   1303c:	d4 27 20 00 	st  %o2, [ %i4 ]
   13040:	d6 22 00 09 	st  %o3, [ %o0 + %o1 ]
   13044:	81 c7 e0 08 	ret 
   13048:	81 e8 00 00 	restore 
   1304c:	b2 02 c0 08 	add  %o3, %o0, %i1
   13050:	b4 10 00 0b 	mov  %o3, %i2
   13054:	d4 06 60 08 	ld  [ %i1 + 8 ], %o2
   13058:	9a 10 00 08 	mov  %o0, %o5
   1305c:	11 00 00 9f 	sethi  %hi(0x27c00), %o0
   13060:	d0 02 21 f4 	ld  [ %o0 + 0x1f4 ], %o0	! 27df4 <Bottom>
   13064:	92 06 60 08 	add  %i1, 8, %o1
   13068:	80 8a a0 01 	btst  1, %o2
   1306c:	12 80 00 0e 	bne  130a4 <realfree+0xb8>
   13070:	80 8e e0 02 	btst  2, %i3
   13074:	80 a2 40 08 	cmp  %o1, %o0
   13078:	02 80 00 08 	be  13098 <realfree+0xac>
   1307c:	90 02 a0 08 	add  %o2, 8, %o0
   13080:	40 00 00 e3 	call  1340c <t_delete>
   13084:	90 10 00 09 	mov  %o1, %o0
   13088:	d4 06 60 08 	ld  [ %i1 + 8 ], %o2
   1308c:	d8 06 21 f8 	ld  [ %i0 + 0x1f8 ], %o4
   13090:	da 07 3f f8 	ld  [ %i4 + -8 ], %o5
   13094:	90 02 a0 08 	add  %o2, 8, %o0
   13098:	90 03 40 08 	add  %o5, %o0, %o0
   1309c:	d0 27 3f f8 	st  %o0, [ %i4 + -8 ]
   130a0:	80 8e e0 02 	btst  2, %i3
   130a4:	22 80 00 0d 	be,a   130d8 <realfree+0xec>
   130a8:	c0 26 a0 20 	clr  [ %i2 + 0x20 ]
   130ac:	f2 07 3f f0 	ld  [ %i4 + -16 ], %i1
   130b0:	40 00 00 d7 	call  1340c <t_delete>
   130b4:	90 10 00 19 	mov  %i1, %o0
   130b8:	d0 07 3f f8 	ld  [ %i4 + -8 ], %o0
   130bc:	b4 10 00 19 	mov  %i1, %i2
   130c0:	d2 06 60 00 	ld  [ %i1 ], %o1
   130c4:	d8 06 21 f8 	ld  [ %i0 + 0x1f8 ], %o4
   130c8:	90 02 20 08 	add  %o0, 8, %o0
   130cc:	90 02 40 08 	add  %o1, %o0, %o0
   130d0:	d0 26 60 00 	st  %o0, [ %i1 ]
   130d4:	c0 26 a0 20 	clr  [ %i2 + 0x20 ]
   130d8:	d0 06 a0 00 	ld  [ %i2 ], %o0
   130dc:	c0 26 a0 18 	clr  [ %i2 + 0x18 ]
   130e0:	c0 26 a0 10 	clr  [ %i2 + 0x10 ]
   130e4:	c0 26 a0 08 	clr  [ %i2 + 8 ]
   130e8:	f4 26 80 08 	st  %i2, [ %i2 + %o0 ]
   130ec:	11 00 00 9f 	sethi  %hi(0x27c00), %o0
   130f0:	de 06 a0 00 	ld  [ %i2 ], %o7
   130f4:	d0 02 21 f0 	ld  [ %o0 + 0x1f0 ], %o0
   130f8:	82 06 80 0f 	add  %i2, %o7, %g1
   130fc:	92 00 60 10 	add  %g1, 0x10, %o1
   13100:	80 a2 40 08 	cmp  %o1, %o0
   13104:	12 80 00 05 	bne  13118 <realfree+0x12c>
   13108:	11 00 00 9f 	sethi  %hi(0x27c00), %o0
   1310c:	f4 22 21 f4 	st  %i2, [ %o0 + 0x1f4 ]	! 27df4 <Bottom>
   13110:	10 80 00 48 	b  13230 <realfree+0x244>
   13114:	d0 00 60 08 	ld  [ %g1 + 8 ], %o0
   13118:	80 a3 20 00 	cmp  %o4, 0
   1311c:	02 80 00 43 	be  13228 <realfree+0x23c>
   13120:	92 06 a0 20 	add  %i2, 0x20, %o1
   13124:	82 10 00 0c 	mov  %o4, %g1
   13128:	94 06 a0 18 	add  %i2, 0x18, %o2
   1312c:	d0 00 60 00 	ld  [ %g1 ], %o0
   13130:	96 06 a0 10 	add  %i2, 0x10, %o3
   13134:	80 a2 00 0f 	cmp  %o0, %o7
   13138:	08 80 00 0e 	bleu  13170 <realfree+0x184>
   1313c:	01 00 00 00 	nop 
   13140:	d0 00 60 10 	ld  [ %g1 + 0x10 ], %o0
   13144:	80 a2 20 00 	cmp  %o0, 0
   13148:	22 80 00 05 	be,a   1315c <realfree+0x170>
   1314c:	f4 20 60 10 	st  %i2, [ %g1 + 0x10 ]
   13150:	82 10 00 08 	mov  %o0, %g1
   13154:	10 bf ff f8 	b  13134 <realfree+0x148>
   13158:	d0 00 60 00 	ld  [ %g1 ], %o0
   1315c:	d0 06 a0 00 	ld  [ %i2 ], %o0
   13160:	c2 26 a0 08 	st  %g1, [ %i2 + 8 ]
   13164:	82 06 80 08 	add  %i2, %o0, %g1
   13168:	10 80 00 32 	b  13230 <realfree+0x244>
   1316c:	d0 00 60 08 	ld  [ %g1 + 8 ], %o0
   13170:	3a 80 00 0e 	bcc,a   131a8 <realfree+0x1bc>
   13174:	de 00 60 08 	ld  [ %g1 + 8 ], %o7
   13178:	d0 00 60 18 	ld  [ %g1 + 0x18 ], %o0
   1317c:	80 a2 20 00 	cmp  %o0, 0
   13180:	22 80 00 05 	be,a   13194 <realfree+0x1a8>
   13184:	f4 20 60 18 	st  %i2, [ %g1 + 0x18 ]
   13188:	82 10 00 08 	mov  %o0, %g1
   1318c:	10 bf ff ea 	b  13134 <realfree+0x148>
   13190:	d0 00 60 00 	ld  [ %g1 ], %o0
   13194:	d0 06 a0 00 	ld  [ %i2 ], %o0
   13198:	c2 26 a0 08 	st  %g1, [ %i2 + 8 ]
   1319c:	82 06 80 08 	add  %i2, %o0, %g1
   131a0:	10 80 00 24 	b  13230 <realfree+0x244>
   131a4:	d0 00 60 08 	ld  [ %g1 + 8 ], %o0
   131a8:	80 a3 e0 00 	cmp  %o7, 0
   131ac:	22 80 00 0d 	be,a   131e0 <realfree+0x1f4>
   131b0:	98 10 00 1a 	mov  %i2, %o4
   131b4:	d0 03 e0 10 	ld  [ %o7 + 0x10 ], %o0
   131b8:	80 a0 40 08 	cmp  %g1, %o0
   131bc:	32 80 00 06 	bne,a   131d4 <realfree+0x1e8>
   131c0:	f4 23 e0 18 	st  %i2, [ %o7 + 0x18 ]
   131c4:	f4 23 e0 10 	st  %i2, [ %o7 + 0x10 ]
   131c8:	de 26 a0 08 	st  %o7, [ %i2 + 8 ]
   131cc:	10 80 00 06 	b  131e4 <realfree+0x1f8>
   131d0:	d0 00 60 10 	ld  [ %g1 + 0x10 ], %o0
   131d4:	de 26 a0 08 	st  %o7, [ %i2 + 8 ]
   131d8:	10 80 00 03 	b  131e4 <realfree+0x1f8>
   131dc:	d0 00 60 10 	ld  [ %g1 + 0x10 ], %o0
   131e0:	d0 00 60 10 	ld  [ %g1 + 0x10 ], %o0
   131e4:	80 a2 20 00 	cmp  %o0, 0
   131e8:	32 80 00 02 	bne,a   131f0 <realfree+0x204>
   131ec:	f4 22 20 08 	st  %i2, [ %o0 + 8 ]
   131f0:	d0 22 e0 00 	st  %o0, [ %o3 ]
   131f4:	d0 00 60 18 	ld  [ %g1 + 0x18 ], %o0
   131f8:	80 a2 20 00 	cmp  %o0, 0
   131fc:	32 80 00 02 	bne,a   13204 <realfree+0x218>
   13200:	f4 22 20 08 	st  %i2, [ %o0 + 8 ]
   13204:	d0 22 a0 00 	st  %o0, [ %o2 ]
   13208:	90 10 3f ff 	mov  -1, %o0
   1320c:	c2 22 60 00 	st  %g1, [ %o1 ]
   13210:	f4 20 60 08 	st  %i2, [ %g1 + 8 ]
   13214:	d0 20 60 10 	st  %o0, [ %g1 + 0x10 ]
   13218:	d0 06 a0 00 	ld  [ %i2 ], %o0
   1321c:	82 06 80 08 	add  %i2, %o0, %g1
   13220:	10 80 00 04 	b  13230 <realfree+0x244>
   13224:	d0 00 60 08 	ld  [ %g1 + 8 ], %o0
   13228:	d0 00 60 08 	ld  [ %g1 + 8 ], %o0
   1322c:	98 10 00 1a 	mov  %i2, %o4
   13230:	d8 26 21 f8 	st  %o4, [ %i0 + 0x1f8 ]
   13234:	90 12 20 02 	or  %o0, 2, %o0
   13238:	d0 20 60 08 	st  %o0, [ %g1 + 8 ]
   1323c:	81 c7 e0 08 	ret 
   13240:	81 e8 00 00 	restore 

0000000000013244 <_morecore>:
   13244:	9d e3 bf 98 	save  %sp, -104, %sp
   13248:	11 00 00 9f 	sethi  %hi(0x27c00), %o0
   1324c:	ba 10 00 18 	mov  %i0, %i5
   13250:	f0 02 21 f4 	ld  [ %o0 + 0x1f4 ], %i0
   13254:	b8 07 60 10 	add  %i5, 0x10, %i4
   13258:	40 00 07 8c 	call  15088 <_sbrk>
   1325c:	90 10 20 00 	clr  %o0
   13260:	b4 10 00 18 	mov  %i0, %i2
   13264:	80 a2 3f ff 	cmp  %o0, -1
   13268:	12 80 00 04 	bne  13278 <_morecore+0x34>
   1326c:	92 10 00 08 	mov  %o0, %o1
   13270:	81 c7 e0 08 	ret 
   13274:	91 e8 20 00 	restore  %g0, 0, %o0
   13278:	b6 10 00 08 	mov  %o0, %i3
   1327c:	90 8a 20 07 	andcc  %o0, 7, %o0
   13280:	b2 10 20 00 	clr  %i1
   13284:	22 80 00 05 	be,a   13298 <_morecore+0x54>
   13288:	11 00 00 9f 	sethi  %hi(0x27c00), %o0
   1328c:	90 20 00 08 	neg  %o0
   13290:	b2 02 20 08 	add  %o0, 8, %i1
   13294:	11 00 00 9f 	sethi  %hi(0x27c00), %o0
   13298:	d0 02 21 f0 	ld  [ %o0 + 0x1f0 ], %o0	! 27df0 <Baddr>
   1329c:	80 a2 40 08 	cmp  %o1, %o0
   132a0:	12 80 00 09 	bne  132c4 <_morecore+0x80>
   132a4:	90 27 20 01 	sub  %i4, 1, %o0
   132a8:	b8 07 60 08 	add  %i5, 8, %i4
   132ac:	80 a6 20 00 	cmp  %i0, 0
   132b0:	02 80 00 05 	be  132c4 <_morecore+0x80>
   132b4:	90 27 20 01 	sub  %i4, 1, %o0
   132b8:	d0 06 20 00 	ld  [ %i0 ], %o0
   132bc:	b8 27 00 08 	sub  %i4, %o0, %i4
   132c0:	90 27 20 01 	sub  %i4, 1, %o0
   132c4:	91 32 20 0d 	srl  %o0, 0xd, %o0
   132c8:	90 02 20 01 	inc  %o0
   132cc:	b9 2a 20 0d 	sll  %o0, 0xd, %i4
   132d0:	92 07 00 19 	add  %i4, %i1, %o1
   132d4:	80 a2 7f ff 	cmp  %o1, -1
   132d8:	12 80 00 04 	bne  132e8 <_morecore+0xa4>
   132dc:	d2 27 bf fc 	st  %o1, [ %fp + -4 ]
   132e0:	81 c7 e0 08 	ret 
   132e4:	91 e8 20 00 	restore  %g0, 0, %o0
   132e8:	11 1f ff ff 	sethi  %hi(0x7ffffc00), %o0
   132ec:	b0 02 23 ff 	add  %o0, 0x3ff, %i0	! 7fffffff <_end+0x7ffd816b>
   132f0:	80 a2 40 18 	cmp  %o1, %i0
   132f4:	18 80 00 09 	bgu  13318 <_morecore+0xd4>
   132f8:	90 10 00 18 	mov  %i0, %o0
   132fc:	40 00 07 63 	call  15088 <_sbrk>
   13300:	90 10 00 09 	mov  %o1, %o0
   13304:	80 a2 3f ff 	cmp  %o0, -1
   13308:	12 80 00 0f 	bne  13344 <_morecore+0x100>
   1330c:	13 00 00 9f 	sethi  %hi(0x27c00), %o1
   13310:	81 c7 e0 08 	ret 
   13314:	91 e8 20 00 	restore  %g0, 0, %o0
   13318:	40 00 07 5c 	call  15088 <_sbrk>
   1331c:	01 00 00 00 	nop 
   13320:	80 a2 3f ff 	cmp  %o0, -1
   13324:	02 80 00 30 	be  133e4 <_morecore+0x1a0>
   13328:	d0 07 bf fc 	ld  [ %fp + -4 ], %o0
   1332c:	90 22 00 18 	sub  %o0, %i0, %o0
   13330:	d0 27 bf fc 	st  %o0, [ %fp + -4 ]
   13334:	90 90 00 08 	orcc  %g0, %o0, %o0
   13338:	14 bf ff f8 	bg  13318 <_morecore+0xd4>
   1333c:	01 00 00 00 	nop 
   13340:	13 00 00 9f 	sethi  %hi(0x27c00), %o1
   13344:	d0 02 61 f0 	ld  [ %o1 + 0x1f0 ], %o0	! 27df0 <Baddr>
   13348:	80 a6 c0 08 	cmp  %i3, %o0
   1334c:	12 80 00 0d 	bne  13380 <_morecore+0x13c>
   13350:	80 a6 a0 00 	cmp  %i2, 0
   13354:	02 80 00 07 	be  13370 <_morecore+0x12c>
   13358:	b0 10 00 1a 	mov  %i2, %i0
   1335c:	d0 06 a0 00 	ld  [ %i2 ], %o0
   13360:	90 02 20 10 	add  %o0, 0x10, %o0
   13364:	b8 07 00 08 	add  %i4, %o0, %i4
   13368:	10 80 00 08 	b  13388 <_morecore+0x144>
   1336c:	90 06 00 1c 	add  %i0, %i4, %o0
   13370:	b0 22 20 08 	sub  %o0, 8, %i0
   13374:	b8 07 20 08 	add  %i4, 8, %i4
   13378:	10 80 00 04 	b  13388 <_morecore+0x144>
   1337c:	90 06 00 1c 	add  %i0, %i4, %o0
   13380:	b0 06 c0 19 	add  %i3, %i1, %i0
   13384:	90 06 00 1c 	add  %i0, %i4, %o0
   13388:	d0 22 61 f0 	st  %o0, [ %o1 + 0x1f0 ]
   1338c:	90 27 20 10 	sub  %i4, 0x10, %o0
   13390:	d0 26 20 00 	st  %o0, [ %i0 ]
   13394:	90 06 00 08 	add  %i0, %o0, %o0
   13398:	d2 02 20 08 	ld  [ %o0 + 8 ], %o1
   1339c:	92 12 60 01 	or  %o1, 1, %o1
   133a0:	d2 22 20 08 	st  %o1, [ %o0 + 8 ]
   133a4:	13 00 00 9f 	sethi  %hi(0x27c00), %o1
   133a8:	d4 02 61 f4 	ld  [ %o1 + 0x1f4 ], %o2	! 27df4 <Bottom>
   133ac:	80 a2 a0 00 	cmp  %o2, 0
   133b0:	02 80 00 15 	be  13404 <_morecore+0x1c0>
   133b4:	01 00 00 00 	nop 
   133b8:	80 a2 80 18 	cmp  %o2, %i0
   133bc:	02 80 00 12 	be  13404 <_morecore+0x1c0>
   133c0:	01 00 00 00 	nop 
   133c4:	d0 02 a0 00 	ld  [ %o2 ], %o0
   133c8:	90 12 20 01 	or  %o0, 1, %o0
   133cc:	d0 22 a0 00 	st  %o0, [ %o2 ]
   133d0:	d0 02 61 f4 	ld  [ %o1 + 0x1f4 ], %o0
   133d4:	7f ff ff 06 	call  12fec <realfree>
   133d8:	90 02 20 08 	add  %o0, 8, %o0
   133dc:	81 c7 e0 08 	ret 
   133e0:	81 e8 00 00 	restore 
   133e4:	40 00 07 29 	call  15088 <_sbrk>
   133e8:	90 10 20 00 	clr  %o0
   133ec:	80 a6 c0 08 	cmp  %i3, %o0
   133f0:	02 80 00 05 	be  13404 <_morecore+0x1c0>
   133f4:	b0 10 20 00 	clr  %i0
   133f8:	11 20 00 00 	sethi  %hi(0x80000000), %o0
   133fc:	40 00 07 23 	call  15088 <_sbrk>
   13400:	90 02 20 01 	inc  %o0
   13404:	81 c7 e0 08 	ret 
   13408:	81 e8 00 00 	restore 

000000000001340c <t_delete>:
   1340c:	9d e3 bf a0 	save  %sp, -96, %sp
   13410:	d0 06 20 10 	ld  [ %i0 + 0x10 ], %o0
   13414:	80 a2 3f ff 	cmp  %o0, -1
   13418:	12 80 00 0a 	bne  13440 <t_delete+0x34>
   1341c:	d0 06 20 08 	ld  [ %i0 + 8 ], %o0
   13420:	d2 06 20 20 	ld  [ %i0 + 0x20 ], %o1
   13424:	80 a2 60 00 	cmp  %o1, 0
   13428:	22 80 00 68 	be,a   135c8 <t_delete+0x1bc>
   1342c:	d2 22 20 20 	st  %o1, [ %o0 + 0x20 ]
   13430:	d0 22 60 08 	st  %o0, [ %o1 + 8 ]
   13434:	d2 22 20 20 	st  %o1, [ %o0 + 0x20 ]
   13438:	81 c7 e0 08 	ret 
   1343c:	81 e8 00 00 	restore 
   13440:	80 a2 20 00 	cmp  %o0, 0
   13444:	22 80 00 05 	be,a   13458 <t_delete+0x4c>
   13448:	d2 06 20 20 	ld  [ %i0 + 0x20 ], %o1
   1344c:	40 00 00 61 	call  135d0 <t_splay>
   13450:	90 10 00 18 	mov  %i0, %o0
   13454:	d2 06 20 20 	ld  [ %i0 + 0x20 ], %o1
   13458:	80 a2 60 00 	cmp  %o1, 0
   1345c:	22 80 00 11 	be,a   134a0 <t_delete+0x94>
   13460:	da 06 20 10 	ld  [ %i0 + 0x10 ], %o5
   13464:	c0 22 60 08 	clr  [ %o1 + 8 ]
   13468:	d0 06 20 10 	ld  [ %i0 + 0x10 ], %o0
   1346c:	80 a2 20 00 	cmp  %o0, 0
   13470:	32 80 00 02 	bne,a   13478 <t_delete+0x6c>
   13474:	d2 22 20 08 	st  %o1, [ %o0 + 8 ]
   13478:	d0 22 60 10 	st  %o0, [ %o1 + 0x10 ]
   1347c:	d0 06 20 18 	ld  [ %i0 + 0x18 ], %o0
   13480:	80 a2 20 00 	cmp  %o0, 0
   13484:	32 80 00 02 	bne,a   1348c <t_delete+0x80>
   13488:	d2 22 20 08 	st  %o1, [ %o0 + 8 ]
   1348c:	d0 22 60 18 	st  %o0, [ %o1 + 0x18 ]
   13490:	11 00 00 9f 	sethi  %hi(0x27c00), %o0
   13494:	d2 22 21 f8 	st  %o1, [ %o0 + 0x1f8 ]	! 27df8 <Root>
   13498:	81 c7 e0 08 	ret 
   1349c:	81 e8 00 00 	restore 
   134a0:	80 a3 60 00 	cmp  %o5, 0
   134a4:	22 80 00 44 	be,a   135b4 <t_delete+0x1a8>
   134a8:	da 06 20 18 	ld  [ %i0 + 0x18 ], %o5
   134ac:	c0 23 60 08 	clr  [ %o5 + 8 ]
   134b0:	d0 06 20 18 	ld  [ %i0 + 0x18 ], %o0
   134b4:	80 a2 20 00 	cmp  %o0, 0
   134b8:	02 80 00 42 	be  135c0 <t_delete+0x1b4>
   134bc:	98 03 60 08 	add  %o5, 8, %o4
   134c0:	c2 03 60 18 	ld  [ %o5 + 0x18 ], %g1
   134c4:	80 a0 60 00 	cmp  %g1, 0
   134c8:	22 80 00 37 	be,a   135a4 <t_delete+0x198>
   134cc:	d0 06 20 18 	ld  [ %i0 + 0x18 ], %o0
   134d0:	de 00 60 18 	ld  [ %g1 + 0x18 ], %o7
   134d4:	80 a3 e0 00 	cmp  %o7, 0
   134d8:	22 80 00 1b 	be,a   13544 <t_delete+0x138>
   134dc:	d0 00 60 10 	ld  [ %g1 + 0x10 ], %o0
   134e0:	d0 03 e0 10 	ld  [ %o7 + 0x10 ], %o0
   134e4:	d0 20 60 18 	st  %o0, [ %g1 + 0x18 ]
   134e8:	80 a2 20 00 	cmp  %o0, 0
   134ec:	02 80 00 03 	be  134f8 <t_delete+0xec>
   134f0:	92 03 e0 08 	add  %o7, 8, %o1
   134f4:	c2 22 20 08 	st  %g1, [ %o0 + 8 ]
   134f8:	d6 03 20 00 	ld  [ %o4 ], %o3
   134fc:	d6 23 e0 08 	st  %o3, [ %o7 + 8 ]
   13500:	80 a2 e0 00 	cmp  %o3, 0
   13504:	22 80 00 0b 	be,a   13530 <t_delete+0x124>
   13508:	de 23 20 00 	st  %o7, [ %o4 ]
   1350c:	d0 03 20 00 	ld  [ %o4 ], %o0
   13510:	d0 02 20 10 	ld  [ %o0 + 0x10 ], %o0
   13514:	80 a2 00 0d 	cmp  %o0, %o5
   13518:	32 80 00 05 	bne,a   1352c <t_delete+0x120>
   1351c:	de 22 e0 18 	st  %o7, [ %o3 + 0x18 ]
   13520:	de 22 e0 10 	st  %o7, [ %o3 + 0x10 ]
   13524:	10 80 00 03 	b  13530 <t_delete+0x124>
   13528:	de 23 20 00 	st  %o7, [ %o4 ]
   1352c:	de 23 20 00 	st  %o7, [ %o4 ]
   13530:	da 23 e0 10 	st  %o5, [ %o7 + 0x10 ]
   13534:	9a 10 00 0f 	mov  %o7, %o5
   13538:	98 10 00 09 	mov  %o1, %o4
   1353c:	10 bf ff e2 	b  134c4 <t_delete+0xb8>
   13540:	c2 03 60 18 	ld  [ %o5 + 0x18 ], %g1
   13544:	d0 23 60 18 	st  %o0, [ %o5 + 0x18 ]
   13548:	80 a2 20 00 	cmp  %o0, 0
   1354c:	02 80 00 03 	be  13558 <t_delete+0x14c>
   13550:	92 00 60 08 	add  %g1, 8, %o1
   13554:	da 22 20 08 	st  %o5, [ %o0 + 8 ]
   13558:	d6 03 20 00 	ld  [ %o4 ], %o3
   1355c:	d6 20 60 08 	st  %o3, [ %g1 + 8 ]
   13560:	80 a2 e0 00 	cmp  %o3, 0
   13564:	22 80 00 0b 	be,a   13590 <t_delete+0x184>
   13568:	da 20 60 10 	st  %o5, [ %g1 + 0x10 ]
   1356c:	d0 03 20 00 	ld  [ %o4 ], %o0
   13570:	d0 02 20 10 	ld  [ %o0 + 0x10 ], %o0
   13574:	80 a2 00 0d 	cmp  %o0, %o5
   13578:	32 80 00 05 	bne,a   1358c <t_delete+0x180>
   1357c:	c2 22 e0 18 	st  %g1, [ %o3 + 0x18 ]
   13580:	c2 22 e0 10 	st  %g1, [ %o3 + 0x10 ]
   13584:	10 80 00 03 	b  13590 <t_delete+0x184>
   13588:	da 20 60 10 	st  %o5, [ %g1 + 0x10 ]
   1358c:	da 20 60 10 	st  %o5, [ %g1 + 0x10 ]
   13590:	c2 23 20 00 	st  %g1, [ %o4 ]
   13594:	9a 10 00 01 	mov  %g1, %o5
   13598:	98 10 00 09 	mov  %o1, %o4
   1359c:	10 bf ff ca 	b  134c4 <t_delete+0xb8>
   135a0:	c2 03 60 18 	ld  [ %o5 + 0x18 ], %g1
   135a4:	d0 23 60 18 	st  %o0, [ %o5 + 0x18 ]
   135a8:	da 22 20 08 	st  %o5, [ %o0 + 8 ]
   135ac:	10 80 00 06 	b  135c4 <t_delete+0x1b8>
   135b0:	11 00 00 9f 	sethi  %hi(0x27c00), %o0
   135b4:	80 a3 60 00 	cmp  %o5, 0
   135b8:	32 80 00 02 	bne,a   135c0 <t_delete+0x1b4>
   135bc:	c0 23 60 08 	clr  [ %o5 + 8 ]
   135c0:	11 00 00 9f 	sethi  %hi(0x27c00), %o0
   135c4:	da 22 21 f8 	st  %o5, [ %o0 + 0x1f8 ]	! 27df8 <Root>
   135c8:	81 c7 e0 08 	ret 
   135cc:	81 e8 00 00 	restore 

00000000000135d0 <t_splay>:
   135d0:	9d e3 bf a0 	save  %sp, -96, %sp
   135d4:	d2 06 20 08 	ld  [ %i0 + 8 ], %o1
   135d8:	90 10 00 18 	mov  %i0, %o0
   135dc:	80 a2 60 00 	cmp  %o1, 0
   135e0:	02 80 00 76 	be  137b8 <t_splay+0x1e8>
   135e4:	01 00 00 00 	nop 
   135e8:	c2 02 60 10 	ld  [ %o1 + 0x10 ], %g1
   135ec:	d4 02 60 08 	ld  [ %o1 + 8 ], %o2
   135f0:	80 a0 40 08 	cmp  %g1, %o0
   135f4:	12 80 00 3a 	bne  136dc <t_splay+0x10c>
   135f8:	80 a2 a0 00 	cmp  %o2, 0
   135fc:	22 80 00 23 	be,a   13688 <t_splay+0xb8>
   13600:	c2 02 20 18 	ld  [ %o0 + 0x18 ], %g1
   13604:	c2 02 a0 10 	ld  [ %o2 + 0x10 ], %g1
   13608:	80 a0 40 09 	cmp  %g1, %o1
   1360c:	32 80 00 1f 	bne,a   13688 <t_splay+0xb8>
   13610:	c2 02 20 18 	ld  [ %o0 + 0x18 ], %g1
   13614:	c2 02 60 18 	ld  [ %o1 + 0x18 ], %g1
   13618:	c2 22 a0 10 	st  %g1, [ %o2 + 0x10 ]
   1361c:	80 a0 60 00 	cmp  %g1, 0
   13620:	32 80 00 02 	bne,a   13628 <t_splay+0x58>
   13624:	d4 20 60 08 	st  %o2, [ %g1 + 8 ]
   13628:	c2 02 20 18 	ld  [ %o0 + 0x18 ], %g1
   1362c:	c2 22 60 10 	st  %g1, [ %o1 + 0x10 ]
   13630:	80 a0 60 00 	cmp  %g1, 0
   13634:	32 80 00 02 	bne,a   1363c <t_splay+0x6c>
   13638:	d2 20 60 08 	st  %o1, [ %g1 + 8 ]
   1363c:	c2 02 a0 08 	ld  [ %o2 + 8 ], %g1
   13640:	c2 22 20 08 	st  %g1, [ %o0 + 8 ]
   13644:	80 a0 60 00 	cmp  %g1, 0
   13648:	22 80 00 0b 	be,a   13674 <t_splay+0xa4>
   1364c:	d2 22 20 18 	st  %o1, [ %o0 + 0x18 ]
   13650:	f0 02 a0 08 	ld  [ %o2 + 8 ], %i0
   13654:	f0 06 20 10 	ld  [ %i0 + 0x10 ], %i0
   13658:	80 a6 00 0a 	cmp  %i0, %o2
   1365c:	32 80 00 05 	bne,a   13670 <t_splay+0xa0>
   13660:	d0 20 60 18 	st  %o0, [ %g1 + 0x18 ]
   13664:	d0 20 60 10 	st  %o0, [ %g1 + 0x10 ]
   13668:	10 80 00 03 	b  13674 <t_splay+0xa4>
   1366c:	d2 22 20 18 	st  %o1, [ %o0 + 0x18 ]
   13670:	d2 22 20 18 	st  %o1, [ %o0 + 0x18 ]
   13674:	d0 22 60 08 	st  %o0, [ %o1 + 8 ]
   13678:	d4 22 60 18 	st  %o2, [ %o1 + 0x18 ]
   1367c:	d2 22 a0 08 	st  %o1, [ %o2 + 8 ]
   13680:	10 bf ff d7 	b  135dc <t_splay+0xc>
   13684:	d2 02 20 08 	ld  [ %o0 + 8 ], %o1
   13688:	c2 22 60 10 	st  %g1, [ %o1 + 0x10 ]
   1368c:	80 a0 60 00 	cmp  %g1, 0
   13690:	32 80 00 02 	bne,a   13698 <t_splay+0xc8>
   13694:	d2 20 60 08 	st  %o1, [ %g1 + 8 ]
   13698:	c2 02 60 08 	ld  [ %o1 + 8 ], %g1
   1369c:	c2 22 20 08 	st  %g1, [ %o0 + 8 ]
   136a0:	80 a0 60 00 	cmp  %g1, 0
   136a4:	22 80 00 0b 	be,a   136d0 <t_splay+0x100>
   136a8:	d2 22 20 18 	st  %o1, [ %o0 + 0x18 ]
   136ac:	d4 02 60 08 	ld  [ %o1 + 8 ], %o2
   136b0:	d4 02 a0 10 	ld  [ %o2 + 0x10 ], %o2
   136b4:	80 a2 80 09 	cmp  %o2, %o1
   136b8:	32 80 00 05 	bne,a   136cc <t_splay+0xfc>
   136bc:	d0 20 60 18 	st  %o0, [ %g1 + 0x18 ]
   136c0:	d0 20 60 10 	st  %o0, [ %g1 + 0x10 ]
   136c4:	10 80 00 03 	b  136d0 <t_splay+0x100>
   136c8:	d2 22 20 18 	st  %o1, [ %o0 + 0x18 ]
   136cc:	d2 22 20 18 	st  %o1, [ %o0 + 0x18 ]
   136d0:	d0 22 60 08 	st  %o0, [ %o1 + 8 ]
   136d4:	10 bf ff c2 	b  135dc <t_splay+0xc>
   136d8:	d2 02 20 08 	ld  [ %o0 + 8 ], %o1
   136dc:	22 80 00 22 	be,a   13764 <t_splay+0x194>
   136e0:	c2 02 20 10 	ld  [ %o0 + 0x10 ], %g1
   136e4:	f0 02 a0 18 	ld  [ %o2 + 0x18 ], %i0
   136e8:	80 a6 00 09 	cmp  %i0, %o1
   136ec:	32 80 00 1e 	bne,a   13764 <t_splay+0x194>
   136f0:	c2 02 20 10 	ld  [ %o0 + 0x10 ], %g1
   136f4:	c2 22 a0 18 	st  %g1, [ %o2 + 0x18 ]
   136f8:	80 a0 60 00 	cmp  %g1, 0
   136fc:	32 80 00 02 	bne,a   13704 <t_splay+0x134>
   13700:	d4 20 60 08 	st  %o2, [ %g1 + 8 ]
   13704:	c2 02 20 10 	ld  [ %o0 + 0x10 ], %g1
   13708:	c2 22 60 18 	st  %g1, [ %o1 + 0x18 ]
   1370c:	80 a0 60 00 	cmp  %g1, 0
   13710:	32 80 00 02 	bne,a   13718 <t_splay+0x148>
   13714:	d2 20 60 08 	st  %o1, [ %g1 + 8 ]
   13718:	c2 02 a0 08 	ld  [ %o2 + 8 ], %g1
   1371c:	c2 22 20 08 	st  %g1, [ %o0 + 8 ]
   13720:	80 a0 60 00 	cmp  %g1, 0
   13724:	22 80 00 0b 	be,a   13750 <t_splay+0x180>
   13728:	d2 22 20 10 	st  %o1, [ %o0 + 0x10 ]
   1372c:	f0 02 a0 08 	ld  [ %o2 + 8 ], %i0
   13730:	f0 06 20 10 	ld  [ %i0 + 0x10 ], %i0
   13734:	80 a6 00 0a 	cmp  %i0, %o2
   13738:	32 80 00 05 	bne,a   1374c <t_splay+0x17c>
   1373c:	d0 20 60 18 	st  %o0, [ %g1 + 0x18 ]
   13740:	d0 20 60 10 	st  %o0, [ %g1 + 0x10 ]
   13744:	10 80 00 03 	b  13750 <t_splay+0x180>
   13748:	d2 22 20 10 	st  %o1, [ %o0 + 0x10 ]
   1374c:	d2 22 20 10 	st  %o1, [ %o0 + 0x10 ]
   13750:	d0 22 60 08 	st  %o0, [ %o1 + 8 ]
   13754:	d4 22 60 10 	st  %o2, [ %o1 + 0x10 ]
   13758:	d2 22 a0 08 	st  %o1, [ %o2 + 8 ]
   1375c:	10 bf ff a0 	b  135dc <t_splay+0xc>
   13760:	d2 02 20 08 	ld  [ %o0 + 8 ], %o1
   13764:	c2 22 60 18 	st  %g1, [ %o1 + 0x18 ]
   13768:	80 a0 60 00 	cmp  %g1, 0
   1376c:	32 80 00 02 	bne,a   13774 <t_splay+0x1a4>
   13770:	d2 20 60 08 	st  %o1, [ %g1 + 8 ]
   13774:	c2 02 60 08 	ld  [ %o1 + 8 ], %g1
   13778:	c2 22 20 08 	st  %g1, [ %o0 + 8 ]
   1377c:	80 a0 60 00 	cmp  %g1, 0
   13780:	22 80 00 0b 	be,a   137ac <t_splay+0x1dc>
   13784:	d2 22 20 10 	st  %o1, [ %o0 + 0x10 ]
   13788:	d4 02 60 08 	ld  [ %o1 + 8 ], %o2
   1378c:	d4 02 a0 10 	ld  [ %o2 + 0x10 ], %o2
   13790:	80 a2 80 09 	cmp  %o2, %o1
   13794:	32 80 00 05 	bne,a   137a8 <t_splay+0x1d8>
   13798:	d0 20 60 18 	st  %o0, [ %g1 + 0x18 ]
   1379c:	d0 20 60 10 	st  %o0, [ %g1 + 0x10 ]
   137a0:	10 80 00 03 	b  137ac <t_splay+0x1dc>
   137a4:	d2 22 20 10 	st  %o1, [ %o0 + 0x10 ]
   137a8:	d2 22 20 10 	st  %o1, [ %o0 + 0x10 ]
   137ac:	d0 22 60 08 	st  %o0, [ %o1 + 8 ]
   137b0:	10 bf ff 8b 	b  135dc <t_splay+0xc>
   137b4:	d2 02 20 08 	ld  [ %o0 + 8 ], %o1
   137b8:	81 c7 e0 08 	ret 
   137bc:	81 e8 00 00 	restore 

00000000000137c0 <free>:
   137c0:	9d e3 bf a0 	save  %sp, -96, %sp
   137c4:	11 00 00 9e 	sethi  %hi(0x27800), %o0
   137c8:	a0 02 22 90 	add  %o0, 0x290, %l0	! 27a90 <__malloc_lock>
   137cc:	7f ff f4 22 	call  10854 <_mutex_lock>
   137d0:	90 10 00 10 	mov  %l0, %o0
   137d4:	40 00 00 04 	call  137e4 <_free_unlocked>
   137d8:	90 10 00 18 	mov  %i0, %o0
   137dc:	7f ff f4 23 	call  10868 <_mutex_unlock>
   137e0:	91 e8 00 10 	restore  %g0, %l0, %o0

00000000000137e4 <_free_unlocked>:
   137e4:	9d e3 bf a0 	save  %sp, -96, %sp
   137e8:	11 00 00 9f 	sethi  %hi(0x27c00), %o0
   137ec:	b2 90 00 18 	orcc  %g0, %i0, %i1
   137f0:	d2 02 21 68 	ld  [ %o0 + 0x168 ], %o1
   137f4:	94 10 00 09 	mov  %o1, %o2
   137f8:	02 80 00 2d 	be  138ac <_free_unlocked+0xc8>
   137fc:	11 00 00 9f 	sethi  %hi(0x27c00), %o0
   13800:	11 00 00 9f 	sethi  %hi(0x27c00), %o0
   13804:	d0 02 21 ec 	ld  [ %o0 + 0x1ec ], %o0	! 27dec <Lfree>
   13808:	80 a6 00 08 	cmp  %i0, %o0
   1380c:	02 80 00 28 	be  138ac <_free_unlocked+0xc8>
   13810:	11 00 00 9f 	sethi  %hi(0x27c00), %o0
   13814:	d0 06 3f f8 	ld  [ %i0 + -8 ], %o0
   13818:	80 8a 20 01 	btst  1, %o0
   1381c:	02 80 00 24 	be  138ac <_free_unlocked+0xc8>
   13820:	11 00 00 9f 	sethi  %hi(0x27c00), %o0
   13824:	11 00 00 9f 	sethi  %hi(0x27c00), %o0
   13828:	80 a2 60 00 	cmp  %o1, 0
   1382c:	04 80 00 0c 	ble  1385c <_free_unlocked+0x78>
   13830:	96 10 20 00 	clr  %o3
   13834:	92 02 21 6c 	add  %o0, 0x16c, %o1
   13838:	d0 02 60 00 	ld  [ %o1 ], %o0
   1383c:	80 a6 00 08 	cmp  %i0, %o0
   13840:	02 80 00 1a 	be  138a8 <_free_unlocked+0xc4>
   13844:	01 00 00 00 	nop 
   13848:	96 02 e0 01 	inc  %o3
   1384c:	92 02 60 04 	add  %o1, 4, %o1
   13850:	80 a2 c0 0a 	cmp  %o3, %o2
   13854:	26 bf ff fa 	bl,a   1383c <_free_unlocked+0x58>
   13858:	d0 02 60 00 	ld  [ %o1 ], %o0
   1385c:	13 00 00 9f 	sethi  %hi(0x27c00), %o1
   13860:	91 2a a0 02 	sll  %o2, 2, %o0
   13864:	b0 02 61 6c 	add  %o1, 0x16c, %i0
   13868:	92 02 00 18 	add  %o0, %i0, %o1
   1386c:	d0 02 00 18 	ld  [ %o0 + %i0 ], %o0
   13870:	80 a2 20 00 	cmp  %o0, 0
   13874:	22 80 00 09 	be,a   13898 <_free_unlocked+0xb4>
   13878:	11 00 00 9f 	sethi  %hi(0x27c00), %o0
   1387c:	7f ff fd dc 	call  12fec <realfree>
   13880:	01 00 00 00 	nop 
   13884:	11 00 00 9f 	sethi  %hi(0x27c00), %o0
   13888:	d4 02 21 68 	ld  [ %o0 + 0x168 ], %o2	! 27d68 <freeidx>
   1388c:	91 2a a0 02 	sll  %o2, 2, %o0
   13890:	92 02 00 18 	add  %o0, %i0, %o1
   13894:	11 00 00 9f 	sethi  %hi(0x27c00), %o0
   13898:	f2 22 21 ec 	st  %i1, [ %o0 + 0x1ec ]	! 27dec <Lfree>
   1389c:	90 02 a0 01 	add  %o2, 1, %o0
   138a0:	f2 22 60 00 	st  %i1, [ %o1 ]
   138a4:	94 0a 20 1f 	and  %o0, 0x1f, %o2
   138a8:	11 00 00 9f 	sethi  %hi(0x27c00), %o0
   138ac:	d4 22 21 68 	st  %o2, [ %o0 + 0x168 ]	! 27d68 <freeidx>
   138b0:	81 c7 e0 08 	ret 
   138b4:	81 e8 00 00 	restore 

00000000000138b8 <cleanfree>:
   138b8:	9d e3 bf a0 	save  %sp, -96, %sp
   138bc:	11 00 00 9f 	sethi  %hi(0x27c00), %o0
   138c0:	13 00 00 9f 	sethi  %hi(0x27c00), %o1
   138c4:	d0 02 21 68 	ld  [ %o0 + 0x168 ], %o0
   138c8:	b2 02 61 6c 	add  %o1, 0x16c, %i1
   138cc:	b8 10 00 18 	mov  %i0, %i4
   138d0:	91 2a 20 02 	sll  %o0, 2, %o0
   138d4:	b6 02 00 19 	add  %o0, %i1, %i3
   138d8:	11 00 00 9f 	sethi  %hi(0x27c00), %o0
   138dc:	b4 02 21 ec 	add  %o0, 0x1ec, %i2	! 27dec <Lfree>
   138e0:	80 a6 c0 19 	cmp  %i3, %i1
   138e4:	22 80 00 02 	be,a   138ec <cleanfree+0x34>
   138e8:	b6 10 00 1a 	mov  %i2, %i3
   138ec:	b6 26 e0 04 	sub  %i3, 4, %i3
   138f0:	d0 06 e0 00 	ld  [ %i3 ], %o0
   138f4:	80 a2 20 00 	cmp  %o0, 0
   138f8:	02 80 00 09 	be  1391c <cleanfree+0x64>
   138fc:	80 a2 00 1c 	cmp  %o0, %i4
   13900:	22 bf ff f8 	be,a   138e0 <cleanfree+0x28>
   13904:	c0 26 e0 00 	clr  [ %i3 ]
   13908:	7f ff fd b9 	call  12fec <realfree>
   1390c:	01 00 00 00 	nop 
   13910:	c0 26 e0 00 	clr  [ %i3 ]
   13914:	10 bf ff f4 	b  138e4 <cleanfree+0x2c>
   13918:	80 a6 c0 19 	cmp  %i3, %i1
   1391c:	11 00 00 9f 	sethi  %hi(0x27c00), %o0
   13920:	c0 22 21 68 	clr  [ %o0 + 0x168 ]	! 27d68 <freeidx>
   13924:	11 00 00 9f 	sethi  %hi(0x27c00), %o0
   13928:	c0 22 21 ec 	clr  [ %o0 + 0x1ec ]	! 27dec <Lfree>
   1392c:	81 c7 e0 08 	ret 
   13930:	81 e8 00 00 	restore 

0000000000013934 <_memmove>:
   13934:	9d e3 bf a0 	save  %sp, -96, %sp
   13938:	ac 10 00 18 	mov  %i0, %l6
   1393c:	80 a6 40 18 	cmp  %i1, %i0
   13940:	3a 80 00 06 	bcc,a   13958 <_memmove+0x24>
   13944:	80 a6 a0 11 	cmp  %i2, 0x11
   13948:	b8 26 00 19 	sub  %i0, %i1, %i4
   1394c:	80 a6 80 1c 	cmp  %i2, %i4
   13950:	18 80 00 6c 	bgu  13b00 <ovbc>
   13954:	80 a6 a0 11 	cmp  %i2, 0x11
   13958:	04 80 00 61 	ble  13adc <dbytecp>
   1395c:	ba 8e 60 03 	andcc  %i1, 3, %i5
   13960:	02 80 00 13 	be  139ac <aldst>
   13964:	80 a7 60 02 	cmp  %i5, 2
   13968:	02 80 00 0a 	be  13990 <s2algn>
   1396c:	80 a7 60 03 	cmp  %i5, 3

0000000000013970 <s1algn>:
   13970:	f6 0e 40 00 	ldub  [ %i1 ], %i3
   13974:	b2 06 60 01 	inc  %i1
   13978:	f6 2e 00 00 	stb  %i3, [ %i0 ]
   1397c:	b0 06 20 01 	inc  %i0
   13980:	12 80 00 04 	bne  13990 <s2algn>
   13984:	b4 26 a0 01 	dec  %i2
   13988:	10 80 00 0a 	b  139b0 <ald>
   1398c:	ba 8e 20 03 	andcc  %i0, 3, %i5

0000000000013990 <s2algn>:
   13990:	f6 16 40 00 	lduh  [ %i1 ], %i3
   13994:	b2 06 60 02 	add  %i1, 2, %i1
   13998:	b9 36 e0 08 	srl  %i3, 8, %i4
   1399c:	f8 2e 00 00 	stb  %i4, [ %i0 ]
   139a0:	f6 2e 20 01 	stb  %i3, [ %i0 + 1 ]
   139a4:	b0 06 20 02 	add  %i0, 2, %i0
   139a8:	b4 26 a0 02 	sub  %i2, 2, %i2

00000000000139ac <aldst>:
   139ac:	ba 8e 20 03 	andcc  %i0, 3, %i5

00000000000139b0 <ald>:
   139b0:	02 80 00 42 	be  13ab8 <w4cp>
   139b4:	80 a7 60 02 	cmp  %i5, 2
   139b8:	02 80 00 2b 	be  13a64 <w2cp>
   139bc:	80 a7 60 03 	cmp  %i5, 3

00000000000139c0 <w3cp>:
   139c0:	f8 06 40 00 	ld  [ %i1 ], %i4
   139c4:	b2 06 60 04 	add  %i1, 4, %i1
   139c8:	bb 37 20 18 	srl  %i4, 0x18, %i5
   139cc:	fa 2e 00 00 	stb  %i5, [ %i0 ]
   139d0:	12 80 00 12 	bne  13a18 <w1cp>
   139d4:	b0 06 20 01 	inc  %i0
   139d8:	b4 26 a0 01 	dec  %i2
   139dc:	b6 2e a0 03 	andn  %i2, 3, %i3
   139e0:	b6 26 e0 04 	sub  %i3, 4, %i3
   139e4:	b2 26 40 18 	sub  %i1, %i0, %i1
   139e8:	83 2f 20 08 	sll  %i4, 8, %g1
   139ec:	f8 06 40 18 	ld  [ %i1 + %i0 ], %i4
   139f0:	b6 a6 e0 04 	subcc  %i3, 4, %i3
   139f4:	bb 37 20 18 	srl  %i4, 0x18, %i5
   139f8:	82 17 40 01 	or  %i5, %g1, %g1
   139fc:	c2 26 00 00 	st  %g1, [ %i0 ]
   13a00:	12 bf ff fa 	bne  139e8 <w3cp+0x28>
   13a04:	b0 06 20 04 	add  %i0, 4, %i0
   13a08:	b2 26 60 03 	sub  %i1, 3, %i1
   13a0c:	b4 0e a0 03 	and  %i2, 3, %i2
   13a10:	10 80 00 37 	b  13aec <dbytecp+0x10>
   13a14:	b4 06 a0 04 	add  %i2, 4, %i2

0000000000013a18 <w1cp>:
   13a18:	bb 37 20 08 	srl  %i4, 8, %i5
   13a1c:	fa 36 00 00 	sth  %i5, [ %i0 ]
   13a20:	b0 06 20 02 	add  %i0, 2, %i0
   13a24:	b4 26 a0 03 	sub  %i2, 3, %i2
   13a28:	b6 2e a0 03 	andn  %i2, 3, %i3
   13a2c:	b6 26 e0 04 	sub  %i3, 4, %i3
   13a30:	b2 26 40 18 	sub  %i1, %i0, %i1
   13a34:	83 2f 20 18 	sll  %i4, 0x18, %g1
   13a38:	f8 06 40 18 	ld  [ %i1 + %i0 ], %i4
   13a3c:	b6 a6 e0 04 	subcc  %i3, 4, %i3
   13a40:	bb 37 20 08 	srl  %i4, 8, %i5
   13a44:	82 17 40 01 	or  %i5, %g1, %g1
   13a48:	c2 26 00 00 	st  %g1, [ %i0 ]
   13a4c:	12 bf ff fa 	bne  13a34 <w1cp+0x1c>
   13a50:	b0 06 20 04 	add  %i0, 4, %i0
   13a54:	b2 26 60 01 	dec  %i1
   13a58:	b4 0e a0 03 	and  %i2, 3, %i2
   13a5c:	10 80 00 24 	b  13aec <dbytecp+0x10>
   13a60:	b4 06 a0 04 	add  %i2, 4, %i2

0000000000013a64 <w2cp>:
   13a64:	f8 06 40 00 	ld  [ %i1 ], %i4
   13a68:	b2 06 60 04 	add  %i1, 4, %i1
   13a6c:	bb 37 20 10 	srl  %i4, 0x10, %i5
   13a70:	fa 36 00 00 	sth  %i5, [ %i0 ]
   13a74:	b0 06 20 02 	add  %i0, 2, %i0
   13a78:	b4 26 a0 02 	sub  %i2, 2, %i2
   13a7c:	b6 2e a0 03 	andn  %i2, 3, %i3
   13a80:	b6 26 e0 04 	sub  %i3, 4, %i3
   13a84:	b2 26 40 18 	sub  %i1, %i0, %i1
   13a88:	83 2f 20 10 	sll  %i4, 0x10, %g1
   13a8c:	f8 06 40 18 	ld  [ %i1 + %i0 ], %i4
   13a90:	b6 a6 e0 04 	subcc  %i3, 4, %i3
   13a94:	bb 37 20 10 	srl  %i4, 0x10, %i5
   13a98:	82 17 40 01 	or  %i5, %g1, %g1
   13a9c:	c2 26 00 00 	st  %g1, [ %i0 ]
   13aa0:	12 bf ff fa 	bne  13a88 <w2cp+0x24>
   13aa4:	b0 06 20 04 	add  %i0, 4, %i0
   13aa8:	b2 26 60 02 	sub  %i1, 2, %i1
   13aac:	b4 0e a0 03 	and  %i2, 3, %i2
   13ab0:	10 80 00 0f 	b  13aec <dbytecp+0x10>
   13ab4:	b4 06 a0 04 	add  %i2, 4, %i2

0000000000013ab8 <w4cp>:
   13ab8:	b6 2e a0 03 	andn  %i2, 3, %i3
   13abc:	b2 26 40 18 	sub  %i1, %i0, %i1
   13ac0:	f8 06 40 18 	ld  [ %i1 + %i0 ], %i4
   13ac4:	b6 a6 e0 04 	subcc  %i3, 4, %i3
   13ac8:	f8 26 00 00 	st  %i4, [ %i0 ]
   13acc:	14 bf ff fd 	bg  13ac0 <w4cp+0x8>
   13ad0:	b0 06 20 04 	add  %i0, 4, %i0
   13ad4:	10 80 00 06 	b  13aec <dbytecp+0x10>
   13ad8:	b4 0e a0 03 	and  %i2, 3, %i2

0000000000013adc <dbytecp>:
   13adc:	10 80 00 04 	b  13aec <dbytecp+0x10>
   13ae0:	b2 26 40 18 	sub  %i1, %i0, %i1
   13ae4:	f8 2e 00 00 	stb  %i4, [ %i0 ]
   13ae8:	b0 06 20 01 	inc  %i0
   13aec:	b4 a6 a0 01 	deccc  %i2
   13af0:	36 bf ff fd 	bge,a   13ae4 <dbytecp+0x8>
   13af4:	f8 0e 40 18 	ldub  [ %i1 + %i0 ], %i4
   13af8:	81 c7 e0 08 	ret 
   13afc:	91 ed 80 00 	restore  %l6, %g0, %o0

0000000000013b00 <ovbc>:
   13b00:	b2 06 40 1a 	add  %i1, %i2, %i1
   13b04:	b0 06 00 1a 	add  %i0, %i2, %i0
   13b08:	b2 26 40 18 	sub  %i1, %i0, %i1
   13b0c:	b0 26 20 01 	dec  %i0
   13b10:	f6 0e 40 18 	ldub  [ %i1 + %i0 ], %i3
   13b14:	b4 a6 a0 01 	deccc  %i2
   13b18:	14 bf ff fd 	bg  13b0c <ovbc+0xc>
   13b1c:	f6 2e 00 00 	stb  %i3, [ %i0 ]
   13b20:	81 c7 e0 08 	ret 
   13b24:	91 ed 80 00 	restore  %l6, %g0, %o0

0000000000013b28 <_libc_mutex_init>:
   13b28:	9d e3 bf a0 	save  %sp, -96, %sp
   13b2c:	03 00 00 9e 	sethi  %hi(0x27800), %g1
   13b30:	90 10 00 18 	mov  %i0, %o0
   13b34:	92 00 61 70 	add  %g1, 0x170, %o1
   13b38:	40 00 00 34 	call  13c08 <_memcpy>
   13b3c:	94 10 20 18 	mov  0x18, %o2
   13b40:	81 c7 e0 08 	ret 
   13b44:	91 e8 20 00 	restore  %g0, 0, %o0

0000000000013b48 <_libc_cond_init>:
   13b48:	9d e3 bf a0 	save  %sp, -96, %sp
   13b4c:	03 00 00 9e 	sethi  %hi(0x27800), %g1
   13b50:	90 10 00 18 	mov  %i0, %o0
   13b54:	92 00 61 88 	add  %g1, 0x188, %o1
   13b58:	40 00 00 2c 	call  13c08 <_memcpy>
   13b5c:	94 10 20 10 	mov  0x10, %o2
   13b60:	81 c7 e0 08 	ret 
   13b64:	91 e8 20 00 	restore  %g0, 0, %o0

0000000000013b68 <_libc_sema_init>:
   13b68:	9d e3 bf a0 	save  %sp, -96, %sp
   13b6c:	03 00 00 9e 	sethi  %hi(0x27800), %g1
   13b70:	90 10 00 18 	mov  %i0, %o0
   13b74:	92 00 61 98 	add  %g1, 0x198, %o1
   13b78:	40 00 00 24 	call  13c08 <_memcpy>
   13b7c:	94 10 20 30 	mov  0x30, %o2
   13b80:	81 c7 e0 08 	ret 
   13b84:	91 e8 20 00 	restore  %g0, 0, %o0

0000000000013b88 <_libc_rwlock_init>:
   13b88:	9d e3 bf a0 	save  %sp, -96, %sp
   13b8c:	03 00 00 9e 	sethi  %hi(0x27800), %g1
   13b90:	90 10 00 18 	mov  %i0, %o0
   13b94:	92 00 61 c8 	add  %g1, 0x1c8, %o1
   13b98:	40 00 00 1c 	call  13c08 <_memcpy>
   13b9c:	94 10 20 40 	mov  0x40, %o2
   13ba0:	81 c7 e0 08 	ret 
   13ba4:	91 e8 20 00 	restore  %g0, 0, %o0

0000000000013ba8 <_libc_pthread_mutex_init>:
   13ba8:	9d e3 bf a0 	save  %sp, -96, %sp
   13bac:	03 00 00 9e 	sethi  %hi(0x27800), %g1
   13bb0:	90 10 00 18 	mov  %i0, %o0
   13bb4:	92 00 62 08 	add  %g1, 0x208, %o1
   13bb8:	40 00 00 14 	call  13c08 <_memcpy>
   13bbc:	94 10 20 18 	mov  0x18, %o2
   13bc0:	81 c7 e0 08 	ret 
   13bc4:	91 e8 20 00 	restore  %g0, 0, %o0

0000000000013bc8 <_libc_pthread_cond_init>:
   13bc8:	9d e3 bf a0 	save  %sp, -96, %sp
   13bcc:	03 00 00 9e 	sethi  %hi(0x27800), %g1
   13bd0:	90 10 00 18 	mov  %i0, %o0
   13bd4:	92 00 62 20 	add  %g1, 0x220, %o1
   13bd8:	40 00 00 0c 	call  13c08 <_memcpy>
   13bdc:	94 10 20 10 	mov  0x10, %o2
   13be0:	81 c7 e0 08 	ret 
   13be4:	91 e8 20 00 	restore  %g0, 0, %o0

0000000000013be8 <_libc_pthread_rwlock_init>:
   13be8:	9d e3 bf a0 	save  %sp, -96, %sp
   13bec:	03 00 00 9e 	sethi  %hi(0x27800), %g1
   13bf0:	90 10 00 18 	mov  %i0, %o0
   13bf4:	92 00 62 30 	add  %g1, 0x230, %o1
   13bf8:	40 00 00 04 	call  13c08 <_memcpy>
   13bfc:	94 10 20 40 	mov  0x40, %o2
   13c00:	81 c7 e0 08 	ret 
   13c04:	91 e8 20 00 	restore  %g0, 0, %o0

0000000000013c08 <_memcpy>:
   13c08:	d0 23 a0 44 	st  %o0, [ %sp + 0x44 ]
   13c0c:	80 a2 a0 11 	cmp  %o2, 0x11
   13c10:	08 80 00 61 	bleu  13d94 <_memcpy+0x18c>
   13c14:	9a 8a 60 03 	andcc  %o1, 3, %o5
   13c18:	02 80 00 13 	be  13c64 <_memcpy+0x5c>
   13c1c:	80 a3 60 02 	cmp  %o5, 2
   13c20:	02 80 00 0a 	be  13c48 <_memcpy+0x40>
   13c24:	80 a3 60 03 	cmp  %o5, 3
   13c28:	d6 0a 40 00 	ldub  [ %o1 ], %o3
   13c2c:	92 02 60 01 	inc  %o1
   13c30:	d6 2a 00 00 	stb  %o3, [ %o0 ]
   13c34:	90 02 20 01 	inc  %o0
   13c38:	12 80 00 04 	bne  13c48 <_memcpy+0x40>
   13c3c:	94 22 a0 01 	dec  %o2
   13c40:	10 80 00 0a 	b  13c68 <_memcpy+0x60>
   13c44:	9a 8a 20 03 	andcc  %o0, 3, %o5
   13c48:	d6 12 40 00 	lduh  [ %o1 ], %o3
   13c4c:	92 02 60 02 	add  %o1, 2, %o1
   13c50:	99 32 e0 08 	srl  %o3, 8, %o4
   13c54:	d8 2a 00 00 	stb  %o4, [ %o0 ]
   13c58:	d6 2a 20 01 	stb  %o3, [ %o0 + 1 ]
   13c5c:	90 02 20 02 	add  %o0, 2, %o0
   13c60:	94 22 a0 02 	sub  %o2, 2, %o2
   13c64:	9a 8a 20 03 	andcc  %o0, 3, %o5
   13c68:	02 80 00 42 	be  13d70 <_memcpy+0x168>
   13c6c:	80 a3 60 02 	cmp  %o5, 2
   13c70:	02 80 00 2b 	be  13d1c <_memcpy+0x114>
   13c74:	80 a3 60 03 	cmp  %o5, 3
   13c78:	d8 02 40 00 	ld  [ %o1 ], %o4
   13c7c:	92 02 60 04 	add  %o1, 4, %o1
   13c80:	9b 33 20 18 	srl  %o4, 0x18, %o5
   13c84:	da 2a 00 00 	stb  %o5, [ %o0 ]
   13c88:	12 80 00 12 	bne  13cd0 <_memcpy+0xc8>
   13c8c:	90 02 20 01 	inc  %o0
   13c90:	94 22 a0 01 	dec  %o2
   13c94:	96 2a a0 03 	andn  %o2, 3, %o3
   13c98:	96 22 e0 04 	sub  %o3, 4, %o3
   13c9c:	92 22 40 08 	sub  %o1, %o0, %o1
   13ca0:	83 2b 20 08 	sll  %o4, 8, %g1
   13ca4:	d8 02 40 08 	ld  [ %o1 + %o0 ], %o4
   13ca8:	96 a2 e0 04 	subcc  %o3, 4, %o3
   13cac:	9b 33 20 18 	srl  %o4, 0x18, %o5
   13cb0:	82 13 40 01 	or  %o5, %g1, %g1
   13cb4:	c2 22 00 00 	st  %g1, [ %o0 ]
   13cb8:	12 bf ff fa 	bne  13ca0 <_memcpy+0x98>
   13cbc:	90 02 20 04 	add  %o0, 4, %o0
   13cc0:	92 22 60 03 	sub  %o1, 3, %o1
   13cc4:	94 0a a0 03 	and  %o2, 3, %o2
   13cc8:	10 80 00 37 	b  13da4 <_memcpy+0x19c>
   13ccc:	94 02 a0 04 	add  %o2, 4, %o2
   13cd0:	9b 33 20 08 	srl  %o4, 8, %o5
   13cd4:	da 32 00 00 	sth  %o5, [ %o0 ]
   13cd8:	90 02 20 02 	add  %o0, 2, %o0
   13cdc:	94 22 a0 03 	sub  %o2, 3, %o2
   13ce0:	96 2a a0 03 	andn  %o2, 3, %o3
   13ce4:	96 22 e0 04 	sub  %o3, 4, %o3
   13ce8:	92 22 40 08 	sub  %o1, %o0, %o1
   13cec:	83 2b 20 18 	sll  %o4, 0x18, %g1
   13cf0:	d8 02 40 08 	ld  [ %o1 + %o0 ], %o4
   13cf4:	96 a2 e0 04 	subcc  %o3, 4, %o3
   13cf8:	9b 33 20 08 	srl  %o4, 8, %o5
   13cfc:	82 13 40 01 	or  %o5, %g1, %g1
   13d00:	c2 22 00 00 	st  %g1, [ %o0 ]
   13d04:	12 bf ff fa 	bne  13cec <_memcpy+0xe4>
   13d08:	90 02 20 04 	add  %o0, 4, %o0
   13d0c:	92 22 60 01 	dec  %o1
   13d10:	94 0a a0 03 	and  %o2, 3, %o2
   13d14:	10 80 00 24 	b  13da4 <_memcpy+0x19c>
   13d18:	94 02 a0 04 	add  %o2, 4, %o2
   13d1c:	d8 02 40 00 	ld  [ %o1 ], %o4
   13d20:	92 02 60 04 	add  %o1, 4, %o1
   13d24:	9b 33 20 10 	srl  %o4, 0x10, %o5
   13d28:	da 32 00 00 	sth  %o5, [ %o0 ]
   13d2c:	90 02 20 02 	add  %o0, 2, %o0
   13d30:	94 22 a0 02 	sub  %o2, 2, %o2
   13d34:	96 2a a0 03 	andn  %o2, 3, %o3
   13d38:	96 22 e0 04 	sub  %o3, 4, %o3
   13d3c:	92 22 40 08 	sub  %o1, %o0, %o1
   13d40:	83 2b 20 10 	sll  %o4, 0x10, %g1
   13d44:	d8 02 40 08 	ld  [ %o1 + %o0 ], %o4
   13d48:	96 a2 e0 04 	subcc  %o3, 4, %o3
   13d4c:	9b 33 20 10 	srl  %o4, 0x10, %o5
   13d50:	82 13 40 01 	or  %o5, %g1, %g1
   13d54:	c2 22 00 00 	st  %g1, [ %o0 ]
   13d58:	12 bf ff fa 	bne  13d40 <_memcpy+0x138>
   13d5c:	90 02 20 04 	add  %o0, 4, %o0
   13d60:	92 22 60 02 	sub  %o1, 2, %o1
   13d64:	94 0a a0 03 	and  %o2, 3, %o2
   13d68:	10 80 00 0f 	b  13da4 <_memcpy+0x19c>
   13d6c:	94 02 a0 04 	add  %o2, 4, %o2
   13d70:	96 2a a0 03 	andn  %o2, 3, %o3
   13d74:	92 22 40 08 	sub  %o1, %o0, %o1
   13d78:	d8 02 40 08 	ld  [ %o1 + %o0 ], %o4
   13d7c:	96 a2 e0 04 	subcc  %o3, 4, %o3
   13d80:	d8 22 00 00 	st  %o4, [ %o0 ]
   13d84:	18 bf ff fd 	bgu  13d78 <_memcpy+0x170>
   13d88:	90 02 20 04 	add  %o0, 4, %o0
   13d8c:	10 80 00 06 	b  13da4 <_memcpy+0x19c>
   13d90:	94 0a a0 03 	and  %o2, 3, %o2
   13d94:	10 80 00 04 	b  13da4 <_memcpy+0x19c>
   13d98:	92 22 40 08 	sub  %o1, %o0, %o1
   13d9c:	d8 2a 00 00 	stb  %o4, [ %o0 ]
   13da0:	90 02 20 01 	inc  %o0
   13da4:	94 a2 a0 01 	deccc  %o2
   13da8:	3a bf ff fd 	bcc,a   13d9c <_memcpy+0x194>
   13dac:	d8 0a 40 08 	ldub  [ %o1 + %o0 ], %o4
   13db0:	81 c3 e0 08 	retl 
   13db4:	d0 03 a0 44 	ld  [ %sp + 0x44 ], %o0

0000000000013db8 <_wait3>:
   13db8:	82 10 00 09 	mov  %o1, %g1
   13dbc:	9a 10 00 08 	mov  %o0, %o5
   13dc0:	96 10 00 0a 	mov  %o2, %o3
   13dc4:	94 10 00 01 	mov  %g1, %o2
   13dc8:	92 10 00 0d 	mov  %o5, %o1
   13dcc:	82 10 00 0f 	mov  %o7, %g1
   13dd0:	90 10 20 00 	clr  %o0
   13dd4:	40 00 07 b4 	call  15ca4 <wait4>
   13dd8:	9e 10 00 01 	mov  %g1, %o7
   13ddc:	00 00 00 d0 	unimp  0xd0
   13de0:	00 00 01 00 	unimp  0x100
   13de4:	00 00 00 dc 	unimp  0xdc
   13de8:	00 00 00 e8 	unimp  0xe8
   13dec:	00 00 00 e8 	unimp  0xe8
   13df0:	00 00 00 f8 	unimp  0xf8

0000000000013df4 <_waitpid>:
   13df4:	9d e3 bf 20 	save  %sp, -224, %sp
   13df8:	92 90 00 18 	orcc  %g0, %i0, %o1
   13dfc:	04 80 00 05 	ble  13e10 <_waitpid+0x1c>
   13e00:	b6 10 00 19 	mov  %i1, %i3
   13e04:	b0 10 20 00 	clr  %i0
   13e08:	10 80 00 12 	b  13e50 <_waitpid+0x5c>
   13e0c:	96 16 a0 03 	or  %i2, 3, %o3
   13e10:	80 a6 3f ff 	cmp  %i0, -1
   13e14:	16 80 00 05 	bge  13e28 <_waitpid+0x34>
   13e18:	b0 10 20 02 	mov  2, %i0
   13e1c:	92 20 00 09 	neg  %o1
   13e20:	10 80 00 0c 	b  13e50 <_waitpid+0x5c>
   13e24:	96 16 a0 03 	or  %i2, 3, %o3
   13e28:	12 80 00 05 	bne  13e3c <_waitpid+0x48>
   13e2c:	b0 10 20 07 	mov  7, %i0
   13e30:	92 10 20 00 	clr  %o1
   13e34:	10 80 00 07 	b  13e50 <_waitpid+0x5c>
   13e38:	96 16 a0 03 	or  %i2, 3, %o3
   13e3c:	40 00 06 79 	call  15820 <_getpgid>
   13e40:	90 10 20 00 	clr  %o0
   13e44:	b0 10 20 02 	mov  2, %i0
   13e48:	92 10 00 08 	mov  %o0, %o1
   13e4c:	96 16 a0 03 	or  %i2, 3, %o3
   13e50:	94 07 bf 80 	add  %fp, -128, %o2
   13e54:	40 00 07 4d 	call  15b88 <_waitid>
   13e58:	90 10 00 18 	mov  %i0, %o0
   13e5c:	90 90 00 08 	orcc  %g0, %o0, %o0
   13e60:	16 80 00 04 	bge  13e70 <_waitpid+0x7c>
   13e64:	80 a6 e0 00 	cmp  %i3, 0
   13e68:	81 c7 e0 08 	ret 
   13e6c:	91 e8 00 08 	restore  %g0, %o0, %o0
   13e70:	22 80 00 1d 	be,a   13ee4 <_waitpid+0xf0>
   13e74:	d0 07 bf 8c 	ld  [ %fp + -116 ], %o0
   13e78:	03 00 00 4f 	sethi  %hi(0x13c00), %g1
   13e7c:	d0 07 bf 94 	ld  [ %fp + -108 ], %o0
   13e80:	94 0a 20 ff 	and  %o0, 0xff, %o2
   13e84:	d0 07 bf 84 	ld  [ %fp + -124 ], %o0
   13e88:	92 22 20 01 	sub  %o0, 1, %o1
   13e8c:	90 00 61 dc 	add  %g1, 0x1dc, %o0
   13e90:	80 a2 60 05 	cmp  %o1, 5
   13e94:	38 80 00 13 	bgu,a   13ee0 <_waitpid+0xec>
   13e98:	d4 26 e0 00 	st  %o2, [ %i3 ]
   13e9c:	93 2a 60 02 	sll  %o1, 2, %o1
   13ea0:	d2 02 40 08 	ld  [ %o1 + %o0 ], %o1
   13ea4:	81 c2 40 08 	jmp  %o1 + %o0
   13ea8:	01 00 00 00 	nop 
   13eac:	95 2a a0 08 	sll  %o2, 8, %o2
   13eb0:	10 80 00 0c 	b  13ee0 <_waitpid+0xec>
   13eb4:	d4 26 e0 00 	st  %o2, [ %i3 ]
   13eb8:	94 12 a0 80 	or  %o2, 0x80, %o2
   13ebc:	10 80 00 09 	b  13ee0 <_waitpid+0xec>
   13ec0:	d4 26 e0 00 	st  %o2, [ %i3 ]
   13ec4:	91 2a a0 08 	sll  %o2, 8, %o0
   13ec8:	94 12 20 7f 	or  %o0, 0x7f, %o2
   13ecc:	10 80 00 05 	b  13ee0 <_waitpid+0xec>
   13ed0:	d4 26 e0 00 	st  %o2, [ %i3 ]
   13ed4:	11 00 00 3f 	sethi  %hi(0xfc00), %o0
   13ed8:	94 02 23 ff 	add  %o0, 0x3ff, %o2	! ffff <_ld_libc+0xffff>
   13edc:	d4 26 e0 00 	st  %o2, [ %i3 ]
   13ee0:	d0 07 bf 8c 	ld  [ %fp + -116 ], %o0
   13ee4:	81 c7 e0 08 	ret 
   13ee8:	91 e8 00 08 	restore  %g0, %o0, %o0

0000000000013eec <_lockf64>:
   13eec:	9d e3 bf 70 	save  %sp, -144, %sp
   13ef0:	80 a6 e0 00 	cmp  %i3, 0
   13ef4:	98 10 00 19 	mov  %i1, %o4
   13ef8:	80 e6 a0 00 	subxcc  %i2, 0, %g0
   13efc:	90 10 20 01 	mov  1, %o0
   13f00:	16 80 00 0a 	bge  13f28 <_lockf64+0x3c>
   13f04:	d0 37 bf d2 	sth  %o0, [ %fp + -46 ]
   13f08:	f4 27 bf d8 	st  %i2, [ %fp + -40 ]
   13f0c:	90 a0 00 1b 	subcc  %g0, %i3, %o0
   13f10:	f6 27 bf dc 	st  %i3, [ %fp + -36 ]
   13f14:	92 60 00 1a 	subx  %g0, %i2, %o1
   13f18:	d2 27 bf e0 	st  %o1, [ %fp + -32 ]
   13f1c:	d0 27 bf e4 	st  %o0, [ %fp + -28 ]
   13f20:	10 80 00 07 	b  13f3c <_lockf64+0x50>
   13f24:	80 a6 60 02 	cmp  %i1, 2
   13f28:	c0 27 bf d8 	clr  [ %fp + -40 ]
   13f2c:	80 a6 60 02 	cmp  %i1, 2
   13f30:	c0 27 bf dc 	clr  [ %fp + -36 ]
   13f34:	f4 27 bf e0 	st  %i2, [ %fp + -32 ]
   13f38:	f6 27 bf e4 	st  %i3, [ %fp + -28 ]
   13f3c:	16 80 00 08 	bge  13f5c <_lockf64+0x70>
   13f40:	80 a3 20 00 	cmp  %o4, 0
   13f44:	02 80 00 0d 	be  13f78 <_lockf64+0x8c>
   13f48:	80 a3 20 01 	cmp  %o4, 1
   13f4c:	02 80 00 14 	be  13f9c <_lockf64+0xb0>
   13f50:	90 10 20 02 	mov  2, %o0
   13f54:	10 80 00 4a 	b  1407c <_lockf64+0x190>
   13f58:	01 00 00 00 	nop 
   13f5c:	80 a6 60 02 	cmp  %i1, 2
   13f60:	02 80 00 17 	be  13fbc <_lockf64+0xd0>
   13f64:	80 a3 20 03 	cmp  %o4, 3
   13f68:	02 80 00 1e 	be  13fe0 <_lockf64+0xf4>
   13f6c:	90 10 20 02 	mov  2, %o0
   13f70:	10 80 00 43 	b  1407c <_lockf64+0x190>
   13f74:	01 00 00 00 	nop 
   13f78:	90 10 20 03 	mov  3, %o0	! 3 <_ld_libc+0x3>
   13f7c:	d0 37 bf d0 	sth  %o0, [ %fp + -48 ]
   13f80:	94 07 bf d0 	add  %fp, -48, %o2
   13f84:	90 10 00 18 	mov  %i0, %o0
   13f88:	40 00 03 93 	call  14dd4 <_libc_fcntl>
   13f8c:	92 10 20 22 	mov  0x22, %o1
   13f90:	b0 10 00 08 	mov  %o0, %i0
   13f94:	10 80 00 28 	b  14034 <_lockf64+0x148>
   13f98:	80 a6 20 00 	cmp  %i0, 0
   13f9c:	d0 37 bf d0 	sth  %o0, [ %fp + -48 ]
   13fa0:	94 07 bf d0 	add  %fp, -48, %o2
   13fa4:	90 10 00 18 	mov  %i0, %o0
   13fa8:	40 00 03 8b 	call  14dd4 <_libc_fcntl>
   13fac:	92 10 20 23 	mov  0x23, %o1
   13fb0:	b0 10 00 08 	mov  %o0, %i0
   13fb4:	10 80 00 20 	b  14034 <_lockf64+0x148>
   13fb8:	80 a6 20 00 	cmp  %i0, 0
   13fbc:	90 10 20 02 	mov  2, %o0
   13fc0:	d0 37 bf d0 	sth  %o0, [ %fp + -48 ]
   13fc4:	94 07 bf d0 	add  %fp, -48, %o2
   13fc8:	90 10 00 18 	mov  %i0, %o0
   13fcc:	40 00 03 82 	call  14dd4 <_libc_fcntl>
   13fd0:	92 10 20 22 	mov  0x22, %o1
   13fd4:	b0 10 00 08 	mov  %o0, %i0
   13fd8:	10 80 00 17 	b  14034 <_lockf64+0x148>
   13fdc:	80 a6 20 00 	cmp  %i0, 0
   13fe0:	d0 37 bf d0 	sth  %o0, [ %fp + -48 ]
   13fe4:	94 07 bf d0 	add  %fp, -48, %o2
   13fe8:	90 10 00 18 	mov  %i0, %o0
   13fec:	40 00 03 7a 	call  14dd4 <_libc_fcntl>
   13ff0:	92 10 20 21 	mov  0x21, %o1
   13ff4:	b0 10 00 08 	mov  %o0, %i0
   13ff8:	80 a2 3f ff 	cmp  %o0, -1
   13ffc:	02 80 00 0e 	be  14034 <_lockf64+0x148>
   14000:	80 a6 20 00 	cmp  %i0, 0
   14004:	d0 57 bf d0 	ldsh  [ %fp + -48 ], %o0
   14008:	80 a2 20 03 	cmp  %o0, 3
   1400c:	12 80 00 04 	bne  1401c <_lockf64+0x130>
   14010:	01 00 00 00 	nop 
   14014:	81 c7 e0 08 	ret 
   14018:	91 e8 20 00 	restore  %g0, 0, %o0
   1401c:	40 00 06 74 	call  159ec <___errno>
   14020:	01 00 00 00 	nop 
   14024:	92 10 20 0b 	mov  0xb, %o1	! b <_ld_libc+0xb>
   14028:	d2 22 20 00 	st  %o1, [ %o0 ]
   1402c:	81 c7 e0 08 	ret 
   14030:	91 e8 3f ff 	restore  %g0, -1, %o0
   14034:	16 80 00 16 	bge  1408c <_lockf64+0x1a0>
   14038:	01 00 00 00 	nop 
   1403c:	40 00 06 6c 	call  159ec <___errno>
   14040:	01 00 00 00 	nop 
   14044:	d2 02 20 00 	ld  [ %o0 ], %o1
   14048:	80 a2 60 18 	cmp  %o1, 0x18
   1404c:	02 80 00 06 	be  14064 <_lockf64+0x178>
   14050:	80 a2 60 1c 	cmp  %o1, 0x1c
   14054:	02 80 00 04 	be  14064 <_lockf64+0x178>
   14058:	80 a2 60 2e 	cmp  %o1, 0x2e
   1405c:	12 80 00 0c 	bne  1408c <_lockf64+0x1a0>
   14060:	01 00 00 00 	nop 
   14064:	40 00 06 62 	call  159ec <___errno>
   14068:	01 00 00 00 	nop 
   1406c:	92 10 20 2d 	mov  0x2d, %o1	! 2d <_ld_libc+0x2d>
   14070:	d2 22 20 00 	st  %o1, [ %o0 ]
   14074:	81 c7 e0 08 	ret 
   14078:	81 e8 00 00 	restore 
   1407c:	40 00 06 5c 	call  159ec <___errno>
   14080:	b0 10 3f ff 	mov  -1, %i0
   14084:	92 10 20 16 	mov  0x16, %o1
   14088:	d2 22 20 00 	st  %o1, [ %o0 ]
   1408c:	81 c7 e0 08 	ret 
   14090:	81 e8 00 00 	restore 

0000000000014094 <_fsync>:
   14094:	82 10 00 0f 	mov  %o7, %g1
   14098:	92 10 20 10 	mov  0x10, %o1
   1409c:	40 00 05 2b 	call  15548 <__fdsync>
   140a0:	9e 10 00 01 	mov  %g1, %o7

00000000000140a4 <_libc_open>:
   140a4:	9d e3 bf a0 	save  %sp, -96, %sp
   140a8:	90 10 00 18 	mov  %i0, %o0
   140ac:	92 10 00 19 	mov  %i1, %o1
   140b0:	40 00 05 71 	call  15674 <__open>
   140b4:	94 10 00 1a 	mov  %i2, %o2
   140b8:	13 00 00 9e 	sethi  %hi(0x27800), %o1
   140bc:	d2 02 62 70 	ld  [ %o1 + 0x270 ], %o1	! 27a70 <__xpg4>
   140c0:	80 a2 60 01 	cmp  %o1, 1
   140c4:	12 80 00 0c 	bne  140f4 <_libc_open+0x50>
   140c8:	b0 10 00 08 	mov  %o0, %i0
   140cc:	80 a2 3f ff 	cmp  %o0, -1
   140d0:	02 80 00 09 	be  140f4 <_libc_open+0x50>
   140d4:	01 00 00 00 	nop 
   140d8:	40 00 00 1f 	call  14154 <isptsfd>
   140dc:	01 00 00 00 	nop 
   140e0:	80 90 00 08 	tst  %o0
   140e4:	02 80 00 04 	be  140f4 <_libc_open+0x50>
   140e8:	01 00 00 00 	nop 
   140ec:	40 00 00 71 	call  142b0 <push_module>
   140f0:	90 10 00 18 	mov  %i0, %o0
   140f4:	81 c7 e0 08 	ret 
   140f8:	81 e8 00 00 	restore 

00000000000140fc <_libc_open64>:
   140fc:	9d e3 bf a0 	save  %sp, -96, %sp
   14100:	90 10 00 18 	mov  %i0, %o0
   14104:	92 10 00 19 	mov  %i1, %o1
   14108:	40 00 04 3b 	call  151f4 <__open64>
   1410c:	94 10 00 1a 	mov  %i2, %o2
   14110:	13 00 00 9e 	sethi  %hi(0x27800), %o1
   14114:	d2 02 62 70 	ld  [ %o1 + 0x270 ], %o1	! 27a70 <__xpg4>
   14118:	80 a2 60 01 	cmp  %o1, 1
   1411c:	12 80 00 0c 	bne  1414c <_libc_open64+0x50>
   14120:	b0 10 00 08 	mov  %o0, %i0
   14124:	80 a2 3f ff 	cmp  %o0, -1
   14128:	02 80 00 09 	be  1414c <_libc_open64+0x50>
   1412c:	01 00 00 00 	nop 
   14130:	40 00 00 09 	call  14154 <isptsfd>
   14134:	01 00 00 00 	nop 
   14138:	80 90 00 08 	tst  %o0
   1413c:	02 80 00 04 	be  1414c <_libc_open64+0x50>
   14140:	01 00 00 00 	nop 
   14144:	40 00 00 5b 	call  142b0 <push_module>
   14148:	90 10 00 18 	mov  %i0, %o0
   1414c:	81 c7 e0 08 	ret 
   14150:	81 e8 00 00 	restore 

0000000000014154 <isptsfd>:
   14154:	9d e3 be 70 	save  %sp, -400, %sp
   14158:	90 10 00 18 	mov  %i0, %o0
   1415c:	33 00 00 3c 	sethi  %hi(0xf000), %i1
   14160:	40 00 04 1c 	call  151d0 <_fstat64>
   14164:	92 07 bf 68 	add  %fp, -152, %o1
   14168:	80 90 00 08 	tst  %o0
   1416c:	12 80 00 28 	bne  1420c <isptsfd+0xb8>
   14170:	d0 07 bf 80 	ld  [ %fp + -128 ], %o0
   14174:	31 00 00 08 	sethi  %hi(0x2000), %i0
   14178:	03 00 00 5c 	sethi  %hi(0x17000), %g1
   1417c:	90 0a 00 19 	and  %o0, %i1, %o0
   14180:	80 a2 00 18 	cmp  %o0, %i0
   14184:	12 80 00 22 	bne  1420c <isptsfd+0xb8>
   14188:	11 00 00 9f 	sethi  %hi(0x27c00), %o0
   1418c:	a0 02 21 fc 	add  %o0, 0x1fc, %l0	! 27dfc <Root+0x4>
   14190:	90 10 00 10 	mov  %l0, %o0
   14194:	40 00 00 fc 	call  14584 <strcpy>
   14198:	92 00 62 68 	add  %g1, 0x268, %o1
   1419c:	d2 07 bf 90 	ld  [ %fp + -112 ], %o1
   141a0:	40 00 02 70 	call  14b60 <__minor>
   141a4:	90 10 20 01 	mov  1, %o0
   141a8:	a2 10 00 08 	mov  %o0, %l1
   141ac:	40 00 01 d0 	call  148ec <strlen>
   141b0:	90 10 00 10 	mov  %l0, %o0
   141b4:	92 02 00 10 	add  %o0, %l0, %o1
   141b8:	40 00 00 18 	call  14218 <itoa>
   141bc:	90 10 00 11 	mov  %l1, %o0
   141c0:	90 10 00 10 	mov  %l0, %o0
   141c4:	40 00 04 2b 	call  15270 <_stat64>
   141c8:	92 07 be d0 	add  %fp, -304, %o1
   141cc:	80 90 00 08 	tst  %o0
   141d0:	32 80 00 10 	bne,a   14210 <isptsfd+0xbc>
   141d4:	90 10 20 00 	clr  %o0
   141d8:	d0 07 bf 80 	ld  [ %fp + -128 ], %o0
   141dc:	d2 07 bf 90 	ld  [ %fp + -112 ], %o1
   141e0:	90 0a 00 19 	and  %o0, %i1, %o0
   141e4:	80 a2 00 18 	cmp  %o0, %i0
   141e8:	32 80 00 0a 	bne,a   14210 <isptsfd+0xbc>
   141ec:	90 10 20 00 	clr  %o0
   141f0:	d0 07 be f8 	ld  [ %fp + -264 ], %o0
   141f4:	80 a2 00 09 	cmp  %o0, %o1
   141f8:	02 80 00 06 	be  14210 <isptsfd+0xbc>
   141fc:	90 10 20 01 	mov  1, %o0
   14200:	90 10 20 00 	clr  %o0
   14204:	81 c7 e0 08 	ret 
   14208:	91 e8 00 08 	restore  %g0, %o0, %o0
   1420c:	90 10 20 00 	clr  %o0
   14210:	81 c7 e0 08 	ret 
   14214:	91 e8 00 08 	restore  %g0, %o0, %o0

0000000000014218 <itoa>:
   14218:	9d e3 bf a0 	save  %sp, -96, %sp
   1421c:	b6 10 00 19 	mov  %i1, %i3
   14220:	b2 10 20 00 	clr  %i1
   14224:	b8 10 00 18 	mov  %i0, %i4
   14228:	b4 10 00 18 	mov  %i0, %i2
   1422c:	b2 06 60 01 	inc  %i1
   14230:	31 19 99 99 	sethi  %hi(0x66666400), %i0
   14234:	90 10 00 1a 	mov  %i2, %o0
   14238:	40 00 00 48 	call  14358 <.mul>
   1423c:	92 06 22 67 	add  %i0, 0x267, %o1
   14240:	97 3e a0 1f 	sra  %i2, 0x1f, %o3
   14244:	95 3a 60 02 	sra  %o1, 2, %o2
   14248:	b4 a2 80 0b 	subcc  %o2, %o3, %i2
   1424c:	32 bf ff fa 	bne,a   14234 <itoa+0x1c>
   14250:	b2 06 60 01 	inc  %i1
   14254:	c0 2e 40 1b 	clrb  [ %i1 + %i3 ]
   14258:	b4 06 c0 19 	add  %i3, %i1, %i2
   1425c:	b2 a6 60 01 	deccc  %i1
   14260:	0c 80 00 12 	bneg  142a8 <itoa+0x90>
   14264:	b4 26 a0 01 	dec  %i2
   14268:	90 10 00 1c 	mov  %i4, %o0
   1426c:	40 00 00 3b 	call  14358 <.mul>
   14270:	92 06 22 67 	add  %i0, 0x267, %o1
   14274:	97 3f 20 1f 	sra  %i4, 0x1f, %o3
   14278:	b2 a6 60 01 	deccc  %i1
   1427c:	95 3a 60 02 	sra  %o1, 2, %o2
   14280:	94 22 80 0b 	sub  %o2, %o3, %o2
   14284:	97 2a a0 02 	sll  %o2, 2, %o3
   14288:	96 02 c0 0a 	add  %o3, %o2, %o3
   1428c:	97 2a e0 01 	sll  %o3, 1, %o3
   14290:	96 27 00 0b 	sub  %i4, %o3, %o3
   14294:	b8 10 00 0a 	mov  %o2, %i4
   14298:	96 02 e0 30 	add  %o3, 0x30, %o3
   1429c:	d6 2e a0 00 	stb  %o3, [ %i2 ]
   142a0:	1c bf ff f2 	bpos  14268 <itoa+0x50>
   142a4:	b4 26 a0 01 	dec  %i2
   142a8:	81 c7 e0 08 	ret 
   142ac:	81 e8 00 00 	restore 

00000000000142b0 <push_module>:
   142b0:	9d e3 bf 90 	save  %sp, -112, %sp
   142b4:	b6 10 00 18 	mov  %i0, %i3
   142b8:	31 00 00 14 	sethi  %hi(0x5000), %i0
   142bc:	b4 06 20 03 	add  %i0, 3, %i2	! 5003 <_ld_libc+0x5003>
   142c0:	f4 27 bf f0 	st  %i2, [ %fp + -16 ]
   142c4:	b2 06 23 08 	add  %i0, 0x308, %i1
   142c8:	c0 27 bf f8 	clr  [ %fp + -8 ]
   142cc:	94 07 bf f0 	add  %fp, -16, %o2
   142d0:	92 10 00 19 	mov  %i1, %o1
   142d4:	c0 27 bf f4 	clr  [ %fp + -12 ]
   142d8:	a0 06 23 27 	add  %i0, 0x327, %l0
   142dc:	c0 27 bf fc 	clr  [ %fp + -4 ]
   142e0:	40 00 04 d1 	call  15624 <_ioctl>
   142e4:	90 10 00 1b 	mov  %i3, %o0
   142e8:	80 a2 3f ff 	cmp  %o0, -1
   142ec:	11 00 00 9e 	sethi  %hi(0x27800), %o0
   142f0:	02 80 00 18 	be  14350 <push_module+0xa0>
   142f4:	01 00 00 00 	nop 
   142f8:	94 02 23 8c 	add  %o0, 0x38c, %o2
   142fc:	92 10 00 10 	mov  %l0, %o1
   14300:	40 00 04 c9 	call  15624 <_ioctl>
   14304:	90 10 00 1b 	mov  %i3, %o0
   14308:	11 00 00 9e 	sethi  %hi(0x27800), %o0
   1430c:	92 10 00 10 	mov  %l0, %o1
   14310:	94 02 23 94 	add  %o0, 0x394, %o2
   14314:	40 00 04 c4 	call  15624 <_ioctl>
   14318:	90 10 00 1b 	mov  %i3, %o0
   1431c:	11 00 00 9e 	sethi  %hi(0x27800), %o0
   14320:	92 10 00 10 	mov  %l0, %o1
   14324:	94 02 23 9c 	add  %o0, 0x39c, %o2
   14328:	40 00 04 bf 	call  15624 <_ioctl>
   1432c:	90 10 00 1b 	mov  %i3, %o0
   14330:	f4 27 bf f0 	st  %i2, [ %fp + -16 ]
   14334:	94 07 bf f0 	add  %fp, -16, %o2
   14338:	92 10 00 19 	mov  %i1, %o1
   1433c:	c0 27 bf f8 	clr  [ %fp + -8 ]
   14340:	c0 27 bf f4 	clr  [ %fp + -12 ]
   14344:	c0 27 bf fc 	clr  [ %fp + -4 ]
   14348:	40 00 04 b7 	call  15624 <_ioctl>
   1434c:	90 10 00 1b 	mov  %i3, %o0
   14350:	81 c7 e0 08 	ret 
   14354:	81 e8 00 00 	restore 

0000000000014358 <.mul>:
   14358:	81 82 00 00 	mov  %o0, %y
   1435c:	98 aa 20 0f 	andncc  %o0, 0xf, %o4
   14360:	02 80 00 38 	be  14440 <.mul+0xe8>
   14364:	1b 3f ff c0 	sethi  %hi(0xffff0000), %o5
   14368:	98 aa 20 ff 	andncc  %o0, 0xff, %o4
   1436c:	22 80 00 44 	be,a   1447c <.mul+0x124>
   14370:	99 23 00 09 	mulscc  %o4, %o1, %o4
   14374:	98 aa 2f ff 	andncc  %o0, 0xfff, %o4
   14378:	22 80 00 53 	be,a   144c4 <.mul+0x16c>
   1437c:	99 23 00 09 	mulscc  %o4, %o1, %o4
   14380:	98 8a 00 0d 	andcc  %o0, %o5, %o4
   14384:	22 80 00 66 	be,a   1451c <.mul+0x1c4>
   14388:	99 23 00 09 	mulscc  %o4, %o1, %o4
   1438c:	98 88 00 00 	andcc  %g0, %g0, %o4
   14390:	99 23 00 09 	mulscc  %o4, %o1, %o4
   14394:	99 23 00 09 	mulscc  %o4, %o1, %o4
   14398:	99 23 00 09 	mulscc  %o4, %o1, %o4
   1439c:	99 23 00 09 	mulscc  %o4, %o1, %o4
   143a0:	99 23 00 09 	mulscc  %o4, %o1, %o4
   143a4:	99 23 00 09 	mulscc  %o4, %o1, %o4
   143a8:	99 23 00 09 	mulscc  %o4, %o1, %o4
   143ac:	99 23 00 09 	mulscc  %o4, %o1, %o4
   143b0:	99 23 00 09 	mulscc  %o4, %o1, %o4
   143b4:	99 23 00 09 	mulscc  %o4, %o1, %o4
   143b8:	99 23 00 09 	mulscc  %o4, %o1, %o4
   143bc:	99 23 00 09 	mulscc  %o4, %o1, %o4
   143c0:	99 23 00 09 	mulscc  %o4, %o1, %o4
   143c4:	99 23 00 09 	mulscc  %o4, %o1, %o4
   143c8:	99 23 00 09 	mulscc  %o4, %o1, %o4
   143cc:	99 23 00 09 	mulscc  %o4, %o1, %o4
   143d0:	99 23 00 09 	mulscc  %o4, %o1, %o4
   143d4:	99 23 00 09 	mulscc  %o4, %o1, %o4
   143d8:	99 23 00 09 	mulscc  %o4, %o1, %o4
   143dc:	99 23 00 09 	mulscc  %o4, %o1, %o4
   143e0:	99 23 00 09 	mulscc  %o4, %o1, %o4
   143e4:	99 23 00 09 	mulscc  %o4, %o1, %o4
   143e8:	99 23 00 09 	mulscc  %o4, %o1, %o4
   143ec:	99 23 00 09 	mulscc  %o4, %o1, %o4
   143f0:	99 23 00 09 	mulscc  %o4, %o1, %o4
   143f4:	99 23 00 09 	mulscc  %o4, %o1, %o4
   143f8:	99 23 00 09 	mulscc  %o4, %o1, %o4
   143fc:	99 23 00 09 	mulscc  %o4, %o1, %o4
   14400:	99 23 00 09 	mulscc  %o4, %o1, %o4
   14404:	99 23 00 09 	mulscc  %o4, %o1, %o4
   14408:	99 23 00 09 	mulscc  %o4, %o1, %o4
   1440c:	99 23 00 09 	mulscc  %o4, %o1, %o4
   14410:	99 23 00 00 	mulscc  %o4, %g0, %o4
   14414:	80 90 00 08 	tst  %o0
   14418:	91 40 00 00 	rd  %y, %o0
   1441c:	16 80 00 03 	bge  14428 <.mul+0xd0>
   14420:	80 90 00 08 	tst  %o0
   14424:	98 23 00 09 	sub  %o4, %o1, %o4
   14428:	16 80 00 04 	bge  14438 <.mul+0xe0>
   1442c:	92 10 00 0c 	mov  %o4, %o1
   14430:	81 c3 e0 08 	retl 
   14434:	80 a2 7f ff 	cmp  %o1, -1
   14438:	81 c3 e0 08 	retl 
   1443c:	80 82 40 00 	addcc  %o1, %g0, %g0
   14440:	99 23 00 09 	mulscc  %o4, %o1, %o4
   14444:	99 23 00 09 	mulscc  %o4, %o1, %o4
   14448:	99 23 00 09 	mulscc  %o4, %o1, %o4
   1444c:	99 23 00 09 	mulscc  %o4, %o1, %o4
   14450:	99 23 00 00 	mulscc  %o4, %g0, %o4
   14454:	9b 40 00 00 	rd  %y, %o5
   14458:	91 2b 20 04 	sll  %o4, 4, %o0
   1445c:	9b 33 60 1c 	srl  %o5, 0x1c, %o5
   14460:	90 93 40 08 	orcc  %o5, %o0, %o0
   14464:	16 80 00 04 	bge  14474 <.mul+0x11c>
   14468:	93 3b 20 1c 	sra  %o4, 0x1c, %o1
   1446c:	81 c3 e0 08 	retl 
   14470:	80 a2 7f ff 	cmp  %o1, -1
   14474:	81 c3 e0 08 	retl 
   14478:	80 82 40 00 	addcc  %o1, %g0, %g0
   1447c:	99 23 00 09 	mulscc  %o4, %o1, %o4
   14480:	99 23 00 09 	mulscc  %o4, %o1, %o4
   14484:	99 23 00 09 	mulscc  %o4, %o1, %o4
   14488:	99 23 00 09 	mulscc  %o4, %o1, %o4
   1448c:	99 23 00 09 	mulscc  %o4, %o1, %o4
   14490:	99 23 00 09 	mulscc  %o4, %o1, %o4
   14494:	99 23 00 09 	mulscc  %o4, %o1, %o4
   14498:	99 23 00 00 	mulscc  %o4, %g0, %o4
   1449c:	9b 40 00 00 	rd  %y, %o5
   144a0:	91 2b 20 08 	sll  %o4, 8, %o0
   144a4:	9b 33 60 18 	srl  %o5, 0x18, %o5
   144a8:	90 93 40 08 	orcc  %o5, %o0, %o0
   144ac:	16 80 00 04 	bge  144bc <.mul+0x164>
   144b0:	93 3b 20 18 	sra  %o4, 0x18, %o1
   144b4:	81 c3 e0 08 	retl 
   144b8:	80 a2 7f ff 	cmp  %o1, -1
   144bc:	81 c3 e0 08 	retl 
   144c0:	80 82 40 00 	addcc  %o1, %g0, %g0
   144c4:	99 23 00 09 	mulscc  %o4, %o1, %o4
   144c8:	99 23 00 09 	mulscc  %o4, %o1, %o4
   144cc:	99 23 00 09 	mulscc  %o4, %o1, %o4
   144d0:	99 23 00 09 	mulscc  %o4, %o1, %o4
   144d4:	99 23 00 09 	mulscc  %o4, %o1, %o4
   144d8:	99 23 00 09 	mulscc  %o4, %o1, %o4
   144dc:	99 23 00 09 	mulscc  %o4, %o1, %o4
   144e0:	99 23 00 09 	mulscc  %o4, %o1, %o4
   144e4:	99 23 00 09 	mulscc  %o4, %o1, %o4
   144e8:	99 23 00 09 	mulscc  %o4, %o1, %o4
   144ec:	99 23 00 09 	mulscc  %o4, %o1, %o4
   144f0:	99 23 00 00 	mulscc  %o4, %g0, %o4
   144f4:	9b 40 00 00 	rd  %y, %o5
   144f8:	91 2b 20 0c 	sll  %o4, 0xc, %o0
   144fc:	9b 33 60 14 	srl  %o5, 0x14, %o5
   14500:	90 93 40 08 	orcc  %o5, %o0, %o0
   14504:	16 80 00 04 	bge  14514 <.mul+0x1bc>
   14508:	93 3b 20 14 	sra  %o4, 0x14, %o1
   1450c:	81 c3 e0 08 	retl 
   14510:	80 a2 7f ff 	cmp  %o1, -1
   14514:	81 c3 e0 08 	retl 
   14518:	80 82 40 00 	addcc  %o1, %g0, %g0
   1451c:	99 23 00 09 	mulscc  %o4, %o1, %o4
   14520:	99 23 00 09 	mulscc  %o4, %o1, %o4
   14524:	99 23 00 09 	mulscc  %o4, %o1, %o4
   14528:	99 23 00 09 	mulscc  %o4, %o1, %o4
   1452c:	99 23 00 09 	mulscc  %o4, %o1, %o4
   14530:	99 23 00 09 	mulscc  %o4, %o1, %o4
   14534:	99 23 00 09 	mulscc  %o4, %o1, %o4
   14538:	99 23 00 09 	mulscc  %o4, %o1, %o4
   1453c:	99 23 00 09 	mulscc  %o4, %o1, %o4
   14540:	99 23 00 09 	mulscc  %o4, %o1, %o4
   14544:	99 23 00 09 	mulscc  %o4, %o1, %o4
   14548:	99 23 00 09 	mulscc  %o4, %o1, %o4
   1454c:	99 23 00 09 	mulscc  %o4, %o1, %o4
   14550:	99 23 00 09 	mulscc  %o4, %o1, %o4
   14554:	99 23 00 09 	mulscc  %o4, %o1, %o4
   14558:	99 23 00 00 	mulscc  %o4, %g0, %o4
   1455c:	9b 40 00 00 	rd  %y, %o5
   14560:	91 2b 20 10 	sll  %o4, 0x10, %o0
   14564:	9b 33 60 10 	srl  %o5, 0x10, %o5
   14568:	90 93 40 08 	orcc  %o5, %o0, %o0
   1456c:	16 80 00 04 	bge  1457c <.mul+0x224>
   14570:	93 3b 20 10 	sra  %o4, 0x10, %o1
   14574:	81 c3 e0 08 	retl 
   14578:	80 a2 7f ff 	cmp  %o1, -1
   1457c:	81 c3 e0 08 	retl 
   14580:	80 82 40 00 	addcc  %o1, %g0, %g0

0000000000014584 <strcpy>:
   14584:	9d e3 bf c0 	save  %sp, -64, %sp
   14588:	b6 8e 60 03 	andcc  %i1, 3, %i3
   1458c:	02 80 00 1c 	be  145fc <strcpy+0x78>
   14590:	b4 10 00 18 	mov  %i0, %i2
   14594:	80 a6 e0 02 	cmp  %i3, 2
   14598:	02 80 00 0a 	be  145c0 <strcpy+0x3c>
   1459c:	80 a6 e0 03 	cmp  %i3, 3
   145a0:	f6 0e 40 00 	ldub  [ %i1 ], %i3
   145a4:	b2 06 60 01 	inc  %i1
   145a8:	f6 2e 00 00 	stb  %i3, [ %i0 ]
   145ac:	02 80 00 11 	be  145f0 <strcpy+0x6c>
   145b0:	80 90 00 1b 	tst  %i3
   145b4:	12 80 00 03 	bne  145c0 <strcpy+0x3c>
   145b8:	b0 06 20 01 	inc  %i0
   145bc:	30 80 00 be 	b,a   148b4 <strcpy+0x330>
   145c0:	f6 16 40 00 	lduh  [ %i1 ], %i3
   145c4:	b2 06 60 02 	add  %i1, 2, %i1
   145c8:	b9 36 e0 08 	srl  %i3, 8, %i4
   145cc:	80 90 00 1c 	tst  %i4
   145d0:	f8 2e 00 00 	stb  %i4, [ %i0 ]
   145d4:	32 80 00 03 	bne,a   145e0 <strcpy+0x5c>
   145d8:	f6 2e 20 01 	stb  %i3, [ %i0 + 1 ]
   145dc:	30 80 00 b6 	b,a   148b4 <strcpy+0x330>
   145e0:	b6 8e e0 ff 	andcc  %i3, 0xff, %i3
   145e4:	12 80 00 06 	bne  145fc <strcpy+0x78>
   145e8:	b0 06 20 02 	add  %i0, 2, %i0
   145ec:	30 80 00 b2 	b,a   148b4 <strcpy+0x330>
   145f0:	12 80 00 03 	bne  145fc <strcpy+0x78>
   145f4:	b0 06 20 01 	inc  %i0
   145f8:	30 80 00 af 	b,a   148b4 <strcpy+0x330>
   145fc:	21 1f bf bf 	sethi  %hi(0x7efefc00), %l0
   14600:	a0 14 22 ff 	or  %l0, 0x2ff, %l0	! 7efefeff <_end+0x7efc806b>
   14604:	23 20 40 40 	sethi  %hi(0x81010000), %l1
   14608:	a2 14 61 00 	or  %l1, 0x100, %l1	! 81010100 <_end+0x80fe826c>
   1460c:	25 3f c0 00 	sethi  %hi(0xff000000), %l2
   14610:	27 00 3f c0 	sethi  %hi(0xff0000), %l3
   14614:	b6 8e 20 03 	andcc  %i0, 3, %i3
   14618:	02 80 00 92 	be  14860 <strcpy+0x2dc>
   1461c:	a9 34 e0 08 	srl  %l3, 8, %l4
   14620:	80 a6 e0 02 	cmp  %i3, 2
   14624:	02 80 00 68 	be  147c4 <strcpy+0x240>
   14628:	80 a6 e0 03 	cmp  %i3, 3
   1462c:	f6 06 40 00 	ld  [ %i1 ], %i3
   14630:	b2 06 60 04 	add  %i1, 4, %i1
   14634:	02 80 00 4f 	be  14770 <strcpy+0x1ec>
   14638:	80 8e c0 12 	btst  %i3, %l2
   1463c:	12 80 00 03 	bne  14648 <strcpy+0xc4>
   14640:	80 8e c0 13 	btst  %i3, %l3
   14644:	30 80 00 9e 	b,a   148bc <strcpy+0x338>
   14648:	12 80 00 03 	bne  14654 <strcpy+0xd0>
   1464c:	80 8e c0 14 	btst  %i3, %l4
   14650:	30 80 00 43 	b,a   1475c <strcpy+0x1d8>
   14654:	12 80 00 03 	bne  14660 <strcpy+0xdc>
   14658:	80 8e e0 ff 	btst  0xff, %i3
   1465c:	30 80 00 3e 	b,a   14754 <strcpy+0x1d0>
   14660:	02 80 00 3c 	be  14750 <strcpy+0x1cc>
   14664:	97 36 e0 18 	srl  %i3, 0x18, %o3
   14668:	d6 2e 00 00 	stb  %o3, [ %i0 ]
   1466c:	97 36 e0 08 	srl  %i3, 8, %o3
   14670:	d6 36 20 01 	sth  %o3, [ %i0 + 1 ]
   14674:	b0 06 20 03 	add  %i0, 3, %i0
   14678:	96 10 00 1b 	mov  %i3, %o3
   1467c:	90 10 20 18 	mov  0x18, %o0
   14680:	10 80 00 03 	b  1468c <strcpy+0x108>
   14684:	92 10 20 08 	mov  8, %o1
   14688:	b0 06 20 04 	add  %i0, 4, %i0
   1468c:	95 2a c0 08 	sll  %o3, %o0, %o2
   14690:	80 8a 80 12 	btst  %o2, %l2
   14694:	02 80 00 8a 	be  148bc <strcpy+0x338>
   14698:	01 00 00 00 	nop 
   1469c:	d6 06 40 00 	ld  [ %i1 ], %o3
   146a0:	b2 06 60 04 	add  %i1, 4, %i1
   146a4:	b7 32 c0 09 	srl  %o3, %o1, %i3
   146a8:	b6 16 c0 0a 	or  %i3, %o2, %i3
   146ac:	aa 06 c0 10 	add  %i3, %l0, %l5
   146b0:	aa 1d 40 1b 	xor  %l5, %i3, %l5
   146b4:	aa 0d 40 11 	and  %l5, %l1, %l5
   146b8:	80 a5 40 11 	cmp  %l5, %l1
   146bc:	22 bf ff f3 	be,a   14688 <strcpy+0x104>
   146c0:	f6 26 00 00 	st  %i3, [ %i0 ]
   146c4:	80 8e c0 12 	btst  %i3, %l2
   146c8:	12 80 00 03 	bne  146d4 <strcpy+0x150>
   146cc:	80 8e c0 13 	btst  %i3, %l3
   146d0:	30 80 00 7b 	b,a   148bc <strcpy+0x338>
   146d4:	12 80 00 03 	bne  146e0 <strcpy+0x15c>
   146d8:	80 8e c0 14 	btst  %i3, %l4
   146dc:	30 80 00 20 	b,a   1475c <strcpy+0x1d8>
   146e0:	12 80 00 03 	bne  146ec <strcpy+0x168>
   146e4:	80 8e e0 ff 	btst  0xff, %i3
   146e8:	30 80 00 1b 	b,a   14754 <strcpy+0x1d0>
   146ec:	f6 26 00 00 	st  %i3, [ %i0 ]
   146f0:	12 bf ff e7 	bne  1468c <strcpy+0x108>
   146f4:	b0 06 20 04 	add  %i0, 4, %i0
   146f8:	30 80 00 6f 	b,a   148b4 <strcpy+0x330>
   146fc:	b0 06 20 04 	add  %i0, 4, %i0
   14700:	95 2a c0 08 	sll  %o3, %o0, %o2
   14704:	80 8a 80 12 	btst  %o2, %l2
   14708:	12 80 00 03 	bne  14714 <strcpy+0x190>
   1470c:	80 8a 80 13 	btst  %o2, %l3
   14710:	30 80 00 6b 	b,a   148bc <strcpy+0x338>
   14714:	12 80 00 04 	bne  14724 <strcpy+0x1a0>
   14718:	80 8a 80 14 	btst  %o2, %l4
   1471c:	b6 10 00 0a 	mov  %o2, %i3
   14720:	30 80 00 0f 	b,a   1475c <strcpy+0x1d8>
   14724:	02 80 00 0c 	be  14754 <strcpy+0x1d0>
   14728:	b6 10 00 0a 	mov  %o2, %i3
   1472c:	d6 06 40 00 	ld  [ %i1 ], %o3
   14730:	b2 06 60 04 	add  %i1, 4, %i1
   14734:	b7 32 c0 09 	srl  %o3, %o1, %i3
   14738:	b6 16 c0 0a 	or  %i3, %o2, %i3
   1473c:	80 8e e0 ff 	btst  0xff, %i3
   14740:	f6 26 00 00 	st  %i3, [ %i0 ]
   14744:	12 bf ff ef 	bne  14700 <strcpy+0x17c>
   14748:	b0 06 20 04 	add  %i0, 4, %i0
   1474c:	30 80 00 5a 	b,a   148b4 <strcpy+0x330>
   14750:	f6 2e 20 03 	stb  %i3, [ %i0 + 3 ]
   14754:	97 36 e0 08 	srl  %i3, 8, %o3
   14758:	d6 2e 20 02 	stb  %o3, [ %i0 + 2 ]
   1475c:	97 36 e0 18 	srl  %i3, 0x18, %o3
   14760:	d6 2e 00 00 	stb  %o3, [ %i0 ]
   14764:	97 36 e0 10 	srl  %i3, 0x10, %o3
   14768:	10 80 00 53 	b  148b4 <strcpy+0x330>
   1476c:	d6 2e 20 01 	stb  %o3, [ %i0 + 1 ]
   14770:	12 80 00 03 	bne  1477c <strcpy+0x1f8>
   14774:	80 8e c0 13 	btst  %i3, %l3
   14778:	30 80 00 51 	b,a   148bc <strcpy+0x338>
   1477c:	12 80 00 03 	bne  14788 <strcpy+0x204>
   14780:	80 8e c0 14 	btst  %i3, %l4
   14784:	30 bf ff f6 	b,a   1475c <strcpy+0x1d8>
   14788:	12 80 00 03 	bne  14794 <strcpy+0x210>
   1478c:	80 8e e0 ff 	btst  0xff, %i3
   14790:	30 bf ff f1 	b,a   14754 <strcpy+0x1d0>
   14794:	02 bf ff ef 	be  14750 <strcpy+0x1cc>
   14798:	97 36 e0 18 	srl  %i3, 0x18, %o3
   1479c:	d6 2e 00 00 	stb  %o3, [ %i0 ]
   147a0:	b0 06 20 01 	inc  %i0
   147a4:	96 10 00 1b 	mov  %i3, %o3
   147a8:	90 10 20 08 	mov  8, %o0
   147ac:	10 bf ff d5 	b  14700 <strcpy+0x17c>
   147b0:	92 10 20 18 	mov  0x18, %o1
   147b4:	97 36 e0 10 	srl  %i3, 0x10, %o3
   147b8:	d6 36 00 00 	sth  %o3, [ %i0 ]
   147bc:	10 80 00 3e 	b  148b4 <strcpy+0x330>
   147c0:	f6 36 20 02 	sth  %i3, [ %i0 + 2 ]
   147c4:	f6 06 40 00 	ld  [ %i1 ], %i3
   147c8:	b2 06 60 04 	add  %i1, 4, %i1
   147cc:	80 8e c0 12 	btst  %i3, %l2
   147d0:	12 80 00 03 	bne  147dc <strcpy+0x258>
   147d4:	80 8e c0 13 	btst  %i3, %l3
   147d8:	30 80 00 39 	b,a   148bc <strcpy+0x338>
   147dc:	02 80 00 3b 	be  148c8 <strcpy+0x344>
   147e0:	97 36 e0 10 	srl  %i3, 0x10, %o3
   147e4:	d6 36 00 00 	sth  %o3, [ %i0 ]
   147e8:	b0 06 20 02 	add  %i0, 2, %i0
   147ec:	10 80 00 03 	b  147f8 <strcpy+0x274>
   147f0:	96 10 00 1b 	mov  %i3, %o3
   147f4:	b0 06 20 04 	add  %i0, 4, %i0
   147f8:	b7 2a e0 10 	sll  %o3, 0x10, %i3
   147fc:	80 8e c0 12 	btst  %i3, %l2
   14800:	12 80 00 03 	bne  1480c <strcpy+0x288>
   14804:	80 8e c0 13 	btst  %i3, %l3
   14808:	30 80 00 2d 	b,a   148bc <strcpy+0x338>
   1480c:	32 80 00 03 	bne,a   14818 <strcpy+0x294>
   14810:	d6 06 40 00 	ld  [ %i1 ], %o3
   14814:	30 80 00 2d 	b,a   148c8 <strcpy+0x344>
   14818:	b2 06 60 04 	add  %i1, 4, %i1
   1481c:	95 32 e0 10 	srl  %o3, 0x10, %o2
   14820:	b6 12 80 1b 	or  %o2, %i3, %i3
   14824:	aa 06 c0 10 	add  %i3, %l0, %l5
   14828:	aa 1d 40 1b 	xor  %l5, %i3, %l5
   1482c:	aa 0d 40 11 	and  %l5, %l1, %l5
   14830:	80 a5 40 11 	cmp  %l5, %l1
   14834:	22 bf ff f0 	be,a   147f4 <strcpy+0x270>
   14838:	f6 26 00 00 	st  %i3, [ %i0 ]
   1483c:	80 8e c0 14 	btst  %i3, %l4
   14840:	12 80 00 03 	bne  1484c <strcpy+0x2c8>
   14844:	80 8e e0 ff 	btst  0xff, %i3
   14848:	30 80 00 24 	b,a   148d8 <strcpy+0x354>
   1484c:	f6 26 00 00 	st  %i3, [ %i0 ]
   14850:	12 bf ff ea 	bne  147f8 <strcpy+0x274>
   14854:	b0 06 20 04 	add  %i0, 4, %i0
   14858:	30 80 00 17 	b,a   148b4 <strcpy+0x330>
   1485c:	b0 06 20 04 	add  %i0, 4, %i0
   14860:	f6 06 40 00 	ld  [ %i1 ], %i3
   14864:	b2 06 60 04 	add  %i1, 4, %i1
   14868:	aa 06 c0 10 	add  %i3, %l0, %l5
   1486c:	aa 1d 40 1b 	xor  %l5, %i3, %l5
   14870:	aa 0d 40 11 	and  %l5, %l1, %l5
   14874:	80 a5 40 11 	cmp  %l5, %l1
   14878:	22 bf ff f9 	be,a   1485c <strcpy+0x2d8>
   1487c:	f6 26 00 00 	st  %i3, [ %i0 ]
   14880:	80 8e c0 12 	btst  %i3, %l2
   14884:	12 80 00 03 	bne  14890 <strcpy+0x30c>
   14888:	80 8e c0 13 	btst  %i3, %l3
   1488c:	30 80 00 0c 	b,a   148bc <strcpy+0x338>
   14890:	12 80 00 03 	bne  1489c <strcpy+0x318>
   14894:	80 8e c0 14 	btst  %i3, %l4
   14898:	30 80 00 0c 	b,a   148c8 <strcpy+0x344>
   1489c:	12 80 00 03 	bne  148a8 <strcpy+0x324>
   148a0:	80 8e e0 ff 	btst  0xff, %i3
   148a4:	30 80 00 0d 	b,a   148d8 <strcpy+0x354>
   148a8:	f6 26 00 00 	st  %i3, [ %i0 ]
   148ac:	12 bf ff ed 	bne  14860 <strcpy+0x2dc>
   148b0:	b0 06 20 04 	add  %i0, 4, %i0
   148b4:	81 c7 e0 08 	ret 
   148b8:	91 ee 80 00 	restore  %i2, %g0, %o0
   148bc:	c0 2e 00 00 	clrb  [ %i0 ]
   148c0:	81 c7 e0 08 	ret 
   148c4:	91 ee 80 00 	restore  %i2, %g0, %o0
   148c8:	b9 36 e0 10 	srl  %i3, 0x10, %i4
   148cc:	f8 36 00 00 	sth  %i4, [ %i0 ]
   148d0:	81 c7 e0 08 	ret 
   148d4:	91 ee 80 00 	restore  %i2, %g0, %o0
   148d8:	b9 36 e0 10 	srl  %i3, 0x10, %i4
   148dc:	f8 36 00 00 	sth  %i4, [ %i0 ]
   148e0:	c0 2e 20 02 	clrb  [ %i0 + 2 ]
   148e4:	81 c7 e0 08 	ret 
   148e8:	91 ee 80 00 	restore  %i2, %g0, %o0

00000000000148ec <strlen>:
   148ec:	92 10 00 08 	mov  %o0, %o1
   148f0:	96 8a 60 03 	andcc  %o1, 3, %o3
   148f4:	02 80 00 1a 	be  1495c <strlen+0x70>
   148f8:	90 10 00 00 	mov  %g0, %o0
   148fc:	80 a2 e0 02 	cmp  %o3, 2
   14900:	02 80 00 09 	be  14924 <strlen+0x38>
   14904:	80 a2 e0 03 	cmp  %o3, 3
   14908:	d6 0a 40 00 	ldub  [ %o1 ], %o3
   1490c:	92 02 60 01 	inc  %o1
   14910:	02 80 00 10 	be  14950 <strlen+0x64>
   14914:	80 90 00 0b 	tst  %o3
   14918:	32 80 00 03 	bne,a   14924 <strlen+0x38>
   1491c:	90 02 20 01 	inc  %o0
   14920:	30 80 00 1f 	b,a   1499c <strlen+0xb0>
   14924:	d6 12 40 00 	lduh  [ %o1 ], %o3
   14928:	92 02 60 02 	add  %o1, 2, %o1
   1492c:	99 32 e0 08 	srl  %o3, 8, %o4
   14930:	80 90 00 0c 	tst  %o4
   14934:	32 80 00 03 	bne,a   14940 <strlen+0x54>
   14938:	90 02 20 01 	inc  %o0
   1493c:	30 80 00 18 	b,a   1499c <strlen+0xb0>
   14940:	96 8a e0 ff 	andcc  %o3, 0xff, %o3
   14944:	32 80 00 06 	bne,a   1495c <strlen+0x70>
   14948:	90 02 20 01 	inc  %o0
   1494c:	30 80 00 14 	b,a   1499c <strlen+0xb0>
   14950:	32 80 00 03 	bne,a   1495c <strlen+0x70>
   14954:	90 02 20 01 	inc  %o0
   14958:	30 80 00 11 	b,a   1499c <strlen+0xb0>
   1495c:	17 1f bf bf 	sethi  %hi(0x7efefc00), %o3
   14960:	96 12 e2 ff 	or  %o3, 0x2ff, %o3	! 7efefeff <_end+0x7efc806b>
   14964:	19 20 40 40 	sethi  %hi(0x81010000), %o4
   14968:	98 13 21 00 	or  %o4, 0x100, %o4	! 81010100 <_end+0x80fe826c>
   1496c:	d4 02 40 00 	ld  [ %o1 ], %o2
   14970:	92 02 60 04 	add  %o1, 4, %o1
   14974:	9a 02 80 0b 	add  %o2, %o3, %o5
   14978:	9a 1b 40 0a 	xor  %o5, %o2, %o5
   1497c:	9a 0b 40 0c 	and  %o5, %o4, %o5
   14980:	80 a3 40 0c 	cmp  %o5, %o4
   14984:	22 bf ff fa 	be,a   1496c <strlen+0x80>
   14988:	90 02 20 04 	add  %o0, 4, %o0
   1498c:	1b 3f c0 00 	sethi  %hi(0xff000000), %o5
   14990:	80 8a 80 0d 	btst  %o2, %o5
   14994:	12 80 00 04 	bne  149a4 <strlen+0xb8>
   14998:	9b 33 60 08 	srl  %o5, 8, %o5
   1499c:	81 c3 e0 08 	retl 
   149a0:	01 00 00 00 	nop 
   149a4:	80 8a 80 0d 	btst  %o2, %o5
   149a8:	12 80 00 04 	bne  149b8 <strlen+0xcc>
   149ac:	9b 33 60 08 	srl  %o5, 8, %o5
   149b0:	81 c3 e0 08 	retl 
   149b4:	90 02 20 01 	inc  %o0
   149b8:	80 8a 80 0d 	btst  %o2, %o5
   149bc:	12 80 00 04 	bne  149cc <strlen+0xe0>
   149c0:	80 8a a0 ff 	btst  0xff, %o2
   149c4:	81 c3 e0 08 	retl 
   149c8:	90 02 20 02 	add  %o0, 2, %o0
   149cc:	32 bf ff e8 	bne,a   1496c <strlen+0x80>
   149d0:	90 02 20 04 	add  %o0, 4, %o0
   149d4:	81 c3 e0 08 	retl 
   149d8:	90 02 20 03 	add  %o0, 3, %o0

00000000000149dc <__makedev>:
   149dc:	9d e3 bf a0 	save  %sp, -96, %sp
   149e0:	80 a6 20 00 	cmp  %i0, 0
   149e4:	90 10 00 18 	mov  %i0, %o0
   149e8:	02 80 00 06 	be  14a00 <__makedev+0x24>
   149ec:	80 a2 20 01 	cmp  %o0, 1
   149f0:	02 80 00 12 	be  14a38 <__makedev+0x5c>
   149f4:	11 00 00 0f 	sethi  %hi(0x3c00), %o0
   149f8:	10 80 00 28 	b  14a98 <__makedev+0xbc>
   149fc:	01 00 00 00 	nop 
   14a00:	80 a6 60 7f 	cmp  %i1, 0x7f
   14a04:	18 80 00 07 	bgu  14a20 <__makedev+0x44>
   14a08:	80 a6 a0 ff 	cmp  %i2, 0xff
   14a0c:	18 80 00 05 	bgu  14a20 <__makedev+0x44>
   14a10:	91 2e 60 08 	sll  %i1, 8, %o0
   14a14:	90 12 00 1a 	or  %o0, %i2, %o0
   14a18:	81 c7 e0 08 	ret 
   14a1c:	91 e8 00 08 	restore  %g0, %o0, %o0
   14a20:	40 00 03 f3 	call  159ec <___errno>
   14a24:	01 00 00 00 	nop 
   14a28:	92 10 20 16 	mov  0x16, %o1	! 16 <_ld_libc+0x16>
   14a2c:	d2 22 20 00 	st  %o1, [ %o0 ]
   14a30:	81 c7 e0 08 	ret 
   14a34:	91 e8 3f ff 	restore  %g0, -1, %o0
   14a38:	90 02 23 ff 	add  %o0, 0x3ff, %o0
   14a3c:	80 a6 40 08 	cmp  %i1, %o0
   14a40:	18 80 00 10 	bgu  14a80 <__makedev+0xa4>
   14a44:	11 00 00 ff 	sethi  %hi(0x3fc00), %o0
   14a48:	90 02 23 ff 	add  %o0, 0x3ff, %o0	! 3ffff <_end+0x1816b>
   14a4c:	80 a6 80 08 	cmp  %i2, %o0
   14a50:	18 80 00 0c 	bgu  14a80 <__makedev+0xa4>
   14a54:	91 2e 60 12 	sll  %i1, 0x12, %o0
   14a58:	90 12 00 1a 	or  %o0, %i2, %o0
   14a5c:	80 a2 3f ff 	cmp  %o0, -1
   14a60:	12 80 00 13 	bne  14aac <__makedev+0xd0>
   14a64:	01 00 00 00 	nop 
   14a68:	40 00 03 e1 	call  159ec <___errno>
   14a6c:	01 00 00 00 	nop 
   14a70:	92 10 20 16 	mov  0x16, %o1	! 16 <_ld_libc+0x16>
   14a74:	d2 22 20 00 	st  %o1, [ %o0 ]
   14a78:	81 c7 e0 08 	ret 
   14a7c:	91 e8 3f ff 	restore  %g0, -1, %o0
   14a80:	40 00 03 db 	call  159ec <___errno>
   14a84:	01 00 00 00 	nop 
   14a88:	92 10 20 16 	mov  0x16, %o1	! 16 <_ld_libc+0x16>
   14a8c:	d2 22 20 00 	st  %o1, [ %o0 ]
   14a90:	81 c7 e0 08 	ret 
   14a94:	91 e8 3f ff 	restore  %g0, -1, %o0
   14a98:	40 00 03 d5 	call  159ec <___errno>
   14a9c:	01 00 00 00 	nop 
   14aa0:	92 10 20 16 	mov  0x16, %o1	! 16 <_ld_libc+0x16>
   14aa4:	d2 22 20 00 	st  %o1, [ %o0 ]
   14aa8:	90 10 3f ff 	mov  -1, %o0
   14aac:	81 c7 e0 08 	ret 
   14ab0:	91 e8 00 08 	restore  %g0, %o0, %o0

0000000000014ab4 <__major>:
   14ab4:	9d e3 bf a0 	save  %sp, -96, %sp
   14ab8:	80 a6 20 00 	cmp  %i0, 0
   14abc:	92 10 00 18 	mov  %i0, %o1
   14ac0:	02 80 00 06 	be  14ad8 <__major+0x24>
   14ac4:	80 a2 60 01 	cmp  %o1, 1
   14ac8:	02 80 00 10 	be  14b08 <__major+0x54>
   14acc:	80 a6 7f ff 	cmp  %i1, -1
   14ad0:	10 80 00 1d 	b  14b44 <__major+0x90>
   14ad4:	01 00 00 00 	nop 
   14ad8:	80 a6 7f ff 	cmp  %i1, -1
   14adc:	02 80 00 05 	be  14af0 <__major+0x3c>
   14ae0:	93 36 60 08 	srl  %i1, 8, %o1
   14ae4:	80 a2 60 7f 	cmp  %o1, 0x7f
   14ae8:	08 80 00 1c 	bleu  14b58 <__major+0xa4>
   14aec:	01 00 00 00 	nop 
   14af0:	40 00 03 bf 	call  159ec <___errno>
   14af4:	01 00 00 00 	nop 
   14af8:	92 10 20 16 	mov  0x16, %o1	! 16 <_ld_libc+0x16>
   14afc:	d2 22 20 00 	st  %o1, [ %o0 ]
   14b00:	81 c7 e0 08 	ret 
   14b04:	91 e8 3f ff 	restore  %g0, -1, %o0
   14b08:	02 80 00 09 	be  14b2c <__major+0x78>
   14b0c:	93 36 60 12 	srl  %i1, 0x12, %o1
   14b10:	11 00 00 0f 	sethi  %hi(0x3c00), %o0
   14b14:	90 02 23 ff 	add  %o0, 0x3ff, %o0	! 3fff <_ld_libc+0x3fff>
   14b18:	80 a2 40 08 	cmp  %o1, %o0
   14b1c:	18 80 00 04 	bgu  14b2c <__major+0x78>
   14b20:	01 00 00 00 	nop 
   14b24:	81 c7 e0 08 	ret 
   14b28:	91 e8 00 09 	restore  %g0, %o1, %o0
   14b2c:	40 00 03 b0 	call  159ec <___errno>
   14b30:	01 00 00 00 	nop 
   14b34:	92 10 20 16 	mov  0x16, %o1	! 16 <_ld_libc+0x16>
   14b38:	d2 22 20 00 	st  %o1, [ %o0 ]
   14b3c:	81 c7 e0 08 	ret 
   14b40:	91 e8 3f ff 	restore  %g0, -1, %o0
   14b44:	40 00 03 aa 	call  159ec <___errno>
   14b48:	01 00 00 00 	nop 
   14b4c:	92 10 20 16 	mov  0x16, %o1	! 16 <_ld_libc+0x16>
   14b50:	d2 22 20 00 	st  %o1, [ %o0 ]
   14b54:	92 10 3f ff 	mov  -1, %o1
   14b58:	81 c7 e0 08 	ret 
   14b5c:	91 e8 00 09 	restore  %g0, %o1, %o0

0000000000014b60 <__minor>:
   14b60:	9d e3 bf a0 	save  %sp, -96, %sp
   14b64:	80 a6 20 00 	cmp  %i0, 0
   14b68:	90 10 00 18 	mov  %i0, %o0
   14b6c:	02 80 00 06 	be  14b84 <__minor+0x24>
   14b70:	80 a2 20 01 	cmp  %o0, 1
   14b74:	02 80 00 0d 	be  14ba8 <__minor+0x48>
   14b78:	80 a6 7f ff 	cmp  %i1, -1
   14b7c:	10 80 00 16 	b  14bd4 <__minor+0x74>
   14b80:	01 00 00 00 	nop 
   14b84:	80 a6 7f ff 	cmp  %i1, -1
   14b88:	32 80 00 18 	bne,a   14be8 <__minor+0x88>
   14b8c:	90 0e 60 ff 	and  %i1, 0xff, %o0
   14b90:	40 00 03 97 	call  159ec <___errno>
   14b94:	01 00 00 00 	nop 
   14b98:	92 10 20 16 	mov  0x16, %o1	! 16 <_ld_libc+0x16>
   14b9c:	d2 22 20 00 	st  %o1, [ %o0 ]
   14ba0:	81 c7 e0 08 	ret 
   14ba4:	91 e8 3f ff 	restore  %g0, -1, %o0
   14ba8:	12 80 00 08 	bne  14bc8 <__minor+0x68>
   14bac:	11 3f ff 00 	sethi  %hi(0xfffc0000), %o0
   14bb0:	40 00 03 8f 	call  159ec <___errno>
   14bb4:	01 00 00 00 	nop 
   14bb8:	92 10 20 16 	mov  0x16, %o1	! 16 <_ld_libc+0x16>
   14bbc:	d2 22 20 00 	st  %o1, [ %o0 ]
   14bc0:	81 c7 e0 08 	ret 
   14bc4:	91 e8 3f ff 	restore  %g0, -1, %o0
   14bc8:	90 2e 40 08 	andn  %i1, %o0, %o0
   14bcc:	81 c7 e0 08 	ret 
   14bd0:	91 e8 00 08 	restore  %g0, %o0, %o0
   14bd4:	40 00 03 86 	call  159ec <___errno>
   14bd8:	01 00 00 00 	nop 
   14bdc:	92 10 20 16 	mov  0x16, %o1	! 16 <_ld_libc+0x16>
   14be0:	d2 22 20 00 	st  %o1, [ %o0 ]
   14be4:	90 10 3f ff 	mov  -1, %o0
   14be8:	81 c7 e0 08 	ret 
   14bec:	91 e8 00 08 	restore  %g0, %o0, %o0

0000000000014bf0 <_lockf>:
   14bf0:	9d e3 bf 78 	save  %sp, -136, %sp
   14bf4:	92 90 00 1a 	orcc  %g0, %i2, %o1
   14bf8:	94 10 00 19 	mov  %i1, %o2
   14bfc:	90 10 20 01 	mov  1, %o0
   14c00:	16 80 00 07 	bge  14c1c <_lockf+0x2c>
   14c04:	d0 37 bf de 	sth  %o0, [ %fp + -34 ]
   14c08:	f4 27 bf e0 	st  %i2, [ %fp + -32 ]
   14c0c:	90 20 00 1a 	neg  %i2, %o0
   14c10:	d0 27 bf e4 	st  %o0, [ %fp + -28 ]
   14c14:	10 80 00 05 	b  14c28 <_lockf+0x38>
   14c18:	80 a6 60 02 	cmp  %i1, 2
   14c1c:	c0 27 bf e0 	clr  [ %fp + -32 ]
   14c20:	80 a6 60 02 	cmp  %i1, 2
   14c24:	f4 27 bf e4 	st  %i2, [ %fp + -28 ]
   14c28:	16 80 00 08 	bge  14c48 <_lockf+0x58>
   14c2c:	80 a2 a0 00 	cmp  %o2, 0
   14c30:	02 80 00 0d 	be  14c64 <_lockf+0x74>
   14c34:	80 a2 a0 01 	cmp  %o2, 1
   14c38:	02 80 00 14 	be  14c88 <_lockf+0x98>
   14c3c:	90 10 20 02 	mov  2, %o0
   14c40:	10 80 00 4a 	b  14d68 <_lockf+0x178>
   14c44:	01 00 00 00 	nop 
   14c48:	80 a6 60 02 	cmp  %i1, 2
   14c4c:	02 80 00 17 	be  14ca8 <_lockf+0xb8>
   14c50:	80 a2 a0 03 	cmp  %o2, 3
   14c54:	02 80 00 1e 	be  14ccc <_lockf+0xdc>
   14c58:	90 10 20 02 	mov  2, %o0
   14c5c:	10 80 00 43 	b  14d68 <_lockf+0x178>
   14c60:	01 00 00 00 	nop 
   14c64:	90 10 20 03 	mov  3, %o0	! 3 <_ld_libc+0x3>
   14c68:	d0 37 bf dc 	sth  %o0, [ %fp + -36 ]
   14c6c:	94 07 bf dc 	add  %fp, -36, %o2
   14c70:	90 10 00 18 	mov  %i0, %o0
   14c74:	40 00 00 58 	call  14dd4 <_libc_fcntl>
   14c78:	92 10 20 06 	mov  6, %o1
   14c7c:	b0 10 00 08 	mov  %o0, %i0
   14c80:	10 80 00 28 	b  14d20 <_lockf+0x130>
   14c84:	80 a6 20 00 	cmp  %i0, 0
   14c88:	d0 37 bf dc 	sth  %o0, [ %fp + -36 ]
   14c8c:	94 07 bf dc 	add  %fp, -36, %o2
   14c90:	90 10 00 18 	mov  %i0, %o0
   14c94:	40 00 00 50 	call  14dd4 <_libc_fcntl>
   14c98:	92 10 20 07 	mov  7, %o1
   14c9c:	b0 10 00 08 	mov  %o0, %i0
   14ca0:	10 80 00 20 	b  14d20 <_lockf+0x130>
   14ca4:	80 a6 20 00 	cmp  %i0, 0
   14ca8:	90 10 20 02 	mov  2, %o0
   14cac:	d0 37 bf dc 	sth  %o0, [ %fp + -36 ]
   14cb0:	94 07 bf dc 	add  %fp, -36, %o2
   14cb4:	90 10 00 18 	mov  %i0, %o0
   14cb8:	40 00 00 47 	call  14dd4 <_libc_fcntl>
   14cbc:	92 10 20 06 	mov  6, %o1
   14cc0:	b0 10 00 08 	mov  %o0, %i0
   14cc4:	10 80 00 17 	b  14d20 <_lockf+0x130>
   14cc8:	80 a6 20 00 	cmp  %i0, 0
   14ccc:	d0 37 bf dc 	sth  %o0, [ %fp + -36 ]
   14cd0:	94 07 bf dc 	add  %fp, -36, %o2
   14cd4:	90 10 00 18 	mov  %i0, %o0
   14cd8:	40 00 00 3f 	call  14dd4 <_libc_fcntl>
   14cdc:	92 10 20 0e 	mov  0xe, %o1
   14ce0:	b0 10 00 08 	mov  %o0, %i0
   14ce4:	80 a2 3f ff 	cmp  %o0, -1
   14ce8:	02 80 00 0e 	be  14d20 <_lockf+0x130>
   14cec:	80 a6 20 00 	cmp  %i0, 0
   14cf0:	d0 57 bf dc 	ldsh  [ %fp + -36 ], %o0
   14cf4:	80 a2 20 03 	cmp  %o0, 3
   14cf8:	12 80 00 04 	bne  14d08 <_lockf+0x118>
   14cfc:	01 00 00 00 	nop 
   14d00:	81 c7 e0 08 	ret 
   14d04:	91 e8 20 00 	restore  %g0, 0, %o0
   14d08:	40 00 03 39 	call  159ec <___errno>
   14d0c:	01 00 00 00 	nop 
   14d10:	92 10 20 0b 	mov  0xb, %o1	! b <_ld_libc+0xb>
   14d14:	d2 22 20 00 	st  %o1, [ %o0 ]
   14d18:	81 c7 e0 08 	ret 
   14d1c:	91 e8 3f ff 	restore  %g0, -1, %o0
   14d20:	16 80 00 16 	bge  14d78 <_lockf+0x188>
   14d24:	01 00 00 00 	nop 
   14d28:	40 00 03 31 	call  159ec <___errno>
   14d2c:	01 00 00 00 	nop 
   14d30:	d2 02 20 00 	ld  [ %o0 ], %o1
   14d34:	80 a2 60 18 	cmp  %o1, 0x18
   14d38:	02 80 00 06 	be  14d50 <_lockf+0x160>
   14d3c:	80 a2 60 1c 	cmp  %o1, 0x1c
   14d40:	02 80 00 04 	be  14d50 <_lockf+0x160>
   14d44:	80 a2 60 2e 	cmp  %o1, 0x2e
   14d48:	12 80 00 0c 	bne  14d78 <_lockf+0x188>
   14d4c:	01 00 00 00 	nop 
   14d50:	40 00 03 27 	call  159ec <___errno>
   14d54:	01 00 00 00 	nop 
   14d58:	92 10 20 2d 	mov  0x2d, %o1	! 2d <_ld_libc+0x2d>
   14d5c:	d2 22 20 00 	st  %o1, [ %o0 ]
   14d60:	81 c7 e0 08 	ret 
   14d64:	81 e8 00 00 	restore 
   14d68:	40 00 03 21 	call  159ec <___errno>
   14d6c:	b0 10 3f ff 	mov  -1, %i0
   14d70:	92 10 20 16 	mov  0x16, %o1
   14d74:	d2 22 20 00 	st  %o1, [ %o0 ]
   14d78:	81 c7 e0 08 	ret 
   14d7c:	81 e8 00 00 	restore 

0000000000014d80 <_s_ioctl>:
   14d80:	82 10 00 0f 	mov  %o7, %g1
   14d84:	40 00 02 28 	call  15624 <_ioctl>
   14d88:	9e 10 00 01 	mov  %g1, %o7

0000000000014d8c <issock>:
   14d8c:	9d e3 bf 08 	save  %sp, -248, %sp
   14d90:	90 10 00 18 	mov  %i0, %o0
   14d94:	40 00 01 0f 	call  151d0 <_fstat64>
   14d98:	92 07 bf 68 	add  %fp, -152, %o1
   14d9c:	80 a2 3f ff 	cmp  %o0, -1
   14da0:	32 80 00 04 	bne,a   14db0 <issock+0x24>
   14da4:	d0 07 bf 80 	ld  [ %fp + -128 ], %o0
   14da8:	81 c7 e0 08 	ret 
   14dac:	91 e8 20 00 	restore  %g0, 0, %o0
   14db0:	13 00 00 3c 	sethi  %hi(0xf000), %o1
   14db4:	90 0a 00 09 	and  %o0, %o1, %o0
   14db8:	13 00 00 30 	sethi  %hi(0xc000), %o1
   14dbc:	80 a2 00 09 	cmp  %o0, %o1
   14dc0:	90 10 20 01 	mov  1, %o0
   14dc4:	32 80 00 02 	bne,a   14dcc <issock+0x40>
   14dc8:	90 10 20 00 	clr  %o0
   14dcc:	81 c7 e0 08 	ret 
   14dd0:	91 e8 00 08 	restore  %g0, %o0, %o0

0000000000014dd4 <_libc_fcntl>:
   14dd4:	9d e3 bf 90 	save  %sp, -112, %sp
   14dd8:	b6 10 00 1a 	mov  %i2, %i3
   14ddc:	b4 10 00 19 	mov  %i1, %i2
   14de0:	80 a6 60 17 	cmp  %i1, 0x17
   14de4:	16 80 00 09 	bge  14e08 <_libc_fcntl+0x34>
   14de8:	80 a6 a0 03 	cmp  %i2, 3
   14dec:	b8 10 00 18 	mov  %i0, %i4
   14df0:	02 80 00 4e 	be  14f28 <_libc_fcntl+0x154>
   14df4:	80 a6 a0 04 	cmp  %i2, 4
   14df8:	02 80 00 1c 	be  14e68 <_libc_fcntl+0x94>
   14dfc:	01 00 00 00 	nop 
   14e00:	10 80 00 6f 	b  14fbc <_libc_fcntl+0x1e8>
   14e04:	90 10 00 18 	mov  %i0, %o0
   14e08:	80 a6 60 17 	cmp  %i1, 0x17
   14e0c:	02 80 00 0c 	be  14e3c <_libc_fcntl+0x68>
   14e10:	80 a6 a0 18 	cmp  %i2, 0x18
   14e14:	12 80 00 69 	bne  14fb8 <_libc_fcntl+0x1e4>
   14e18:	11 20 01 19 	sethi  %hi(0x80046400), %o0
   14e1c:	f6 27 bf fc 	st  %i3, [ %fp + -4 ]
   14e20:	92 02 22 7c 	add  %o0, 0x27c, %o1
   14e24:	94 07 bf fc 	add  %fp, -4, %o2
   14e28:	40 00 01 ff 	call  15624 <_ioctl>
   14e2c:	90 10 00 18 	mov  %i0, %o0
   14e30:	b2 10 00 08 	mov  %o0, %i1
   14e34:	81 c7 e0 08 	ret 
   14e38:	91 e8 00 19 	restore  %g0, %i1, %o0
   14e3c:	11 10 01 19 	sethi  %hi(0x40046400), %o0
   14e40:	94 07 bf f8 	add  %fp, -8, %o2
   14e44:	92 02 22 7b 	add  %o0, 0x27b, %o1
   14e48:	40 00 01 f7 	call  15624 <_ioctl>
   14e4c:	90 10 00 18 	mov  %i0, %o0
   14e50:	80 90 00 08 	tst  %o0
   14e54:	36 80 00 5e 	bge,a   14fcc <_libc_fcntl+0x1f8>
   14e58:	f2 07 bf f8 	ld  [ %fp + -8 ], %i1
   14e5c:	b2 10 3f ff 	mov  -1, %i1
   14e60:	81 c7 e0 08 	ret 
   14e64:	91 e8 00 19 	restore  %g0, %i1, %o0
   14e68:	7f ff ff c9 	call  14d8c <issock>
   14e6c:	90 10 00 18 	mov  %i0, %o0
   14e70:	80 90 00 08 	tst  %o0
   14e74:	02 80 00 26 	be  14f0c <_libc_fcntl+0x138>
   14e78:	90 10 20 04 	mov  4, %o0
   14e7c:	d0 27 bf f4 	st  %o0, [ %fp + -12 ]
   14e80:	11 00 00 3f 	sethi  %hi(0xfc00), %o0
   14e84:	31 00 00 08 	sethi  %hi(0x2000), %i0
   14e88:	b2 02 23 ff 	add  %o0, 0x3ff, %i1
   14e8c:	94 10 00 18 	mov  %i0, %o2
   14e90:	92 10 00 19 	mov  %i1, %o1
   14e94:	96 07 bf f8 	add  %fp, -8, %o3
   14e98:	98 07 bf f4 	add  %fp, -12, %o4
   14e9c:	40 00 01 77 	call  15478 <_so_getsockopt>
   14ea0:	90 10 00 1c 	mov  %i4, %o0
   14ea4:	80 90 00 08 	tst  %o0
   14ea8:	16 80 00 05 	bge  14ebc <_libc_fcntl+0xe8>
   14eac:	11 00 00 04 	sethi  %hi(0x1000), %o0
   14eb0:	b2 10 3f ff 	mov  -1, %i1
   14eb4:	81 c7 e0 08 	ret 
   14eb8:	91 e8 00 19 	restore  %g0, %i1, %o0
   14ebc:	80 8e c0 08 	btst  %i3, %o0
   14ec0:	02 80 00 05 	be  14ed4 <_libc_fcntl+0x100>
   14ec4:	d2 07 bf f8 	ld  [ %fp + -8 ], %o1
   14ec8:	90 12 61 00 	or  %o1, 0x100, %o0
   14ecc:	10 80 00 04 	b  14edc <_libc_fcntl+0x108>
   14ed0:	d0 27 bf f8 	st  %o0, [ %fp + -8 ]
   14ed4:	90 0a 7e ff 	and  %o1, -257, %o0
   14ed8:	d0 27 bf f8 	st  %o0, [ %fp + -8 ]
   14edc:	94 10 00 18 	mov  %i0, %o2
   14ee0:	90 10 00 1c 	mov  %i4, %o0
   14ee4:	92 10 00 19 	mov  %i1, %o1
   14ee8:	96 07 bf f8 	add  %fp, -8, %o3
   14eec:	40 00 01 6c 	call  1549c <_so_setsockopt>
   14ef0:	98 10 20 04 	mov  4, %o4
   14ef4:	80 90 00 08 	tst  %o0
   14ef8:	16 80 00 06 	bge  14f10 <_libc_fcntl+0x13c>
   14efc:	90 10 00 1c 	mov  %i4, %o0
   14f00:	b2 10 3f ff 	mov  -1, %i1
   14f04:	81 c7 e0 08 	ret 
   14f08:	91 e8 00 19 	restore  %g0, %i1, %o0
   14f0c:	90 10 00 1c 	mov  %i4, %o0
   14f10:	92 10 00 1a 	mov  %i2, %o1
   14f14:	40 00 01 3b 	call  15400 <__fcntl>
   14f18:	94 10 00 1b 	mov  %i3, %o2
   14f1c:	b2 10 00 08 	mov  %o0, %i1
   14f20:	81 c7 e0 08 	ret 
   14f24:	91 e8 00 19 	restore  %g0, %i1, %o0
   14f28:	92 10 00 19 	mov  %i1, %o1
   14f2c:	90 10 00 18 	mov  %i0, %o0
   14f30:	40 00 01 34 	call  15400 <__fcntl>
   14f34:	94 10 00 1b 	mov  %i3, %o2
   14f38:	b0 90 00 08 	orcc  %g0, %o0, %i0
   14f3c:	16 80 00 04 	bge  14f4c <_libc_fcntl+0x178>
   14f40:	b2 10 3f ff 	mov  -1, %i1
   14f44:	81 c7 e0 08 	ret 
   14f48:	91 e8 00 19 	restore  %g0, %i1, %o0
   14f4c:	b2 10 00 08 	mov  %o0, %i1
   14f50:	7f ff ff 8f 	call  14d8c <issock>
   14f54:	90 10 00 1c 	mov  %i4, %o0
   14f58:	80 90 00 08 	tst  %o0
   14f5c:	02 80 00 1c 	be  14fcc <_libc_fcntl+0x1f8>
   14f60:	90 10 20 04 	mov  4, %o0
   14f64:	d0 27 bf f0 	st  %o0, [ %fp + -16 ]
   14f68:	11 00 00 3f 	sethi  %hi(0xfc00), %o0
   14f6c:	96 07 bf f8 	add  %fp, -8, %o3
   14f70:	92 02 23 ff 	add  %o0, 0x3ff, %o1
   14f74:	98 07 bf f0 	add  %fp, -16, %o4
   14f78:	15 00 00 08 	sethi  %hi(0x2000), %o2
   14f7c:	40 00 01 3f 	call  15478 <_so_getsockopt>
   14f80:	90 10 00 1c 	mov  %i4, %o0
   14f84:	80 90 00 08 	tst  %o0
   14f88:	36 80 00 05 	bge,a   14f9c <_libc_fcntl+0x1c8>
   14f8c:	d0 07 bf f8 	ld  [ %fp + -8 ], %o0
   14f90:	b2 10 3f ff 	mov  -1, %i1
   14f94:	81 c7 e0 08 	ret 
   14f98:	91 e8 00 19 	restore  %g0, %i1, %o0
   14f9c:	80 8a 21 00 	btst  0x100, %o0
   14fa0:	02 80 00 0b 	be  14fcc <_libc_fcntl+0x1f8>
   14fa4:	01 00 00 00 	nop 
   14fa8:	11 00 00 04 	sethi  %hi(0x1000), %o0
   14fac:	b2 16 00 08 	or  %i0, %o0, %i1
   14fb0:	81 c7 e0 08 	ret 
   14fb4:	91 e8 00 19 	restore  %g0, %i1, %o0
   14fb8:	90 10 00 18 	mov  %i0, %o0
   14fbc:	92 10 00 19 	mov  %i1, %o1
   14fc0:	40 00 01 10 	call  15400 <__fcntl>
   14fc4:	94 10 00 1b 	mov  %i3, %o2
   14fc8:	b2 10 00 08 	mov  %o0, %i1
   14fcc:	81 c7 e0 08 	ret 
   14fd0:	91 e8 00 19 	restore  %g0, %i1, %o0

0000000000014fd4 <_msgget>:
   14fd4:	94 10 00 08 	mov  %o0, %o2
   14fd8:	96 10 00 09 	mov  %o1, %o3
   14fdc:	82 10 00 0f 	mov  %o7, %g1
   14fe0:	90 10 20 31 	mov  0x31, %o0
   14fe4:	92 10 20 00 	clr  %o1
   14fe8:	40 00 02 c2 	call  15af0 <_syscall>
   14fec:	9e 10 00 01 	mov  %g1, %o7

0000000000014ff0 <_msgctl>:
   14ff0:	82 10 00 08 	mov  %o0, %g1
   14ff4:	98 10 00 0a 	mov  %o2, %o4
   14ff8:	96 10 00 09 	mov  %o1, %o3
   14ffc:	94 10 00 01 	mov  %g1, %o2
   15000:	82 10 00 0f 	mov  %o7, %g1
   15004:	90 10 20 31 	mov  0x31, %o0
   15008:	92 10 20 01 	mov  1, %o1
   1500c:	40 00 02 b9 	call  15af0 <_syscall>
   15010:	9e 10 00 01 	mov  %g1, %o7

0000000000015014 <_msgrcv>:
   15014:	9d e3 bf a0 	save  %sp, -96, %sp
   15018:	94 10 00 18 	mov  %i0, %o2
   1501c:	f8 23 a0 5c 	st  %i4, [ %sp + 0x5c ]
   15020:	96 10 00 19 	mov  %i1, %o3
   15024:	98 10 00 1a 	mov  %i2, %o4
   15028:	9a 10 00 1b 	mov  %i3, %o5
   1502c:	90 10 20 31 	mov  0x31, %o0
   15030:	40 00 02 b0 	call  15af0 <_syscall>
   15034:	92 10 20 02 	mov  2, %o1
   15038:	81 c7 e0 08 	ret 
   1503c:	91 e8 00 08 	restore  %g0, %o0, %o0

0000000000015040 <_msgsnd>:
   15040:	9d e3 bf a0 	save  %sp, -96, %sp
   15044:	a0 10 00 18 	mov  %i0, %l0
   15048:	b8 10 00 1a 	mov  %i2, %i4
   1504c:	82 10 00 19 	mov  %i1, %g1
   15050:	ba 10 00 1b 	mov  %i3, %i5
   15054:	b4 10 00 10 	mov  %l0, %i2
   15058:	b0 10 20 31 	mov  0x31, %i0
   1505c:	b2 10 20 03 	mov  3, %i1
   15060:	40 00 02 a4 	call  15af0 <_syscall>
   15064:	97 e8 00 01 	restore  %g0, %g1, %o3

0000000000015068 <___xpg4_putmsg>:
   15068:	82 10 00 0f 	mov  %o7, %g1
   1506c:	96 12 e0 08 	or  %o3, 8, %o3
   15070:	40 00 01 a7 	call  1570c <_putmsg>
   15074:	9e 10 00 01 	mov  %g1, %o7

0000000000015078 <___xpg4_putpmsg>:
   15078:	82 10 00 0f 	mov  %o7, %g1
   1507c:	98 13 20 08 	or  %o4, 8, %o4
   15080:	40 00 01 ae 	call  15738 <_putpmsg>
   15084:	9e 10 00 01 	mov  %g1, %o7

0000000000015088 <_sbrk>:
   15088:	9d e3 bf a0 	save  %sp, -96, %sp
   1508c:	11 00 00 9e 	sethi  %hi(0x27800), %o0
   15090:	a0 02 22 78 	add  %o0, 0x278, %l0	! 27a78 <__sbrk_lock>
   15094:	7f ff ed f0 	call  10854 <_mutex_lock>
   15098:	90 10 00 10 	mov  %l0, %o0
   1509c:	40 00 00 07 	call  150b8 <_sbrk_unlocked>
   150a0:	90 10 00 18 	mov  %i0, %o0
   150a4:	b0 10 00 08 	mov  %o0, %i0
   150a8:	7f ff ed f0 	call  10868 <_mutex_unlock>
   150ac:	90 10 00 10 	mov  %l0, %o0
   150b0:	81 c7 e0 08 	ret 
   150b4:	81 e8 00 00 	restore 

00000000000150b8 <_sbrk_unlocked>:
   150b8:	9d e3 bf a0 	save  %sp, -96, %sp
   150bc:	11 00 00 9e 	sethi  %hi(0x27800), %o0
   150c0:	92 90 00 18 	orcc  %g0, %i0, %o1
   150c4:	d0 02 22 c0 	ld  [ %o0 + 0x2c0 ], %o0
   150c8:	90 02 20 07 	add  %o0, 7, %o0
   150cc:	b0 0a 3f f8 	and  %o0, -8, %i0
   150d0:	90 06 00 09 	add  %i0, %o1, %o0
   150d4:	90 02 20 07 	add  %o0, 7, %o0
   150d8:	04 80 00 05 	ble  150ec <_sbrk_unlocked+0x34>
   150dc:	90 0a 3f f8 	and  %o0, -8, %o0
   150e0:	80 a2 00 18 	cmp  %o0, %i0
   150e4:	0a 80 00 08 	bcs  15104 <_sbrk_unlocked+0x4c>
   150e8:	01 00 00 00 	nop 
   150ec:	80 a2 60 00 	cmp  %o1, 0
   150f0:	16 80 00 0b 	bge  1511c <_sbrk_unlocked+0x64>
   150f4:	01 00 00 00 	nop 
   150f8:	80 a2 00 18 	cmp  %o0, %i0
   150fc:	08 80 00 08 	bleu  1511c <_sbrk_unlocked+0x64>
   15100:	01 00 00 00 	nop 
   15104:	40 00 02 3a 	call  159ec <___errno>
   15108:	01 00 00 00 	nop 
   1510c:	92 10 20 0c 	mov  0xc, %o1	! c <_ld_libc+0xc>
   15110:	d2 22 20 00 	st  %o1, [ %o0 ]
   15114:	81 c7 e0 08 	ret 
   15118:	91 e8 3f ff 	restore  %g0, -1, %o0
   1511c:	40 00 00 ed 	call  154d0 <_brk_unlocked>
   15120:	01 00 00 00 	nop 
   15124:	80 90 00 08 	tst  %o0
   15128:	90 10 3f ff 	mov  -1, %o0
   1512c:	22 80 00 02 	be,a   15134 <_sbrk_unlocked+0x7c>
   15130:	90 10 00 18 	mov  %i0, %o0
   15134:	81 c7 e0 08 	ret 
   15138:	91 e8 00 08 	restore  %g0, %o0, %o0

000000000001513c <_brk>:
   1513c:	9d e3 bf a0 	save  %sp, -96, %sp
   15140:	11 00 00 9e 	sethi  %hi(0x27800), %o0
   15144:	a0 02 22 78 	add  %o0, 0x278, %l0	! 27a78 <__sbrk_lock>
   15148:	7f ff ed c3 	call  10854 <_mutex_lock>
   1514c:	90 10 00 10 	mov  %l0, %o0
   15150:	90 06 20 07 	add  %i0, 7, %o0
   15154:	40 00 00 df 	call  154d0 <_brk_unlocked>
   15158:	90 0a 3f f8 	and  %o0, -8, %o0
   1515c:	b0 10 00 08 	mov  %o0, %i0
   15160:	7f ff ed c2 	call  10868 <_mutex_unlock>
   15164:	90 10 00 10 	mov  %l0, %o0
   15168:	81 c7 e0 08 	ret 
   1516c:	81 e8 00 00 	restore 

0000000000015170 <_libc_prepare_atfork>:
   15170:	03 00 00 9e 	sethi  %hi(0x27800), %g1
   15174:	90 00 62 90 	add  %g1, 0x290, %o0	! 27a90 <__malloc_lock>
   15178:	82 10 00 0f 	mov  %o7, %g1
   1517c:	7f ff ed b6 	call  10854 <_mutex_lock>
   15180:	9e 10 00 01 	mov  %g1, %o7

0000000000015184 <_libc_child_atfork>:
   15184:	03 00 00 9e 	sethi  %hi(0x27800), %g1
   15188:	90 00 62 90 	add  %g1, 0x290, %o0	! 27a90 <__malloc_lock>
   1518c:	82 10 00 0f 	mov  %o7, %g1
   15190:	7f ff ed b6 	call  10868 <_mutex_unlock>
   15194:	9e 10 00 01 	mov  %g1, %o7

0000000000015198 <_libc_parent_atfork>:
   15198:	03 00 00 9e 	sethi  %hi(0x27800), %g1
   1519c:	90 00 62 90 	add  %g1, 0x290, %o0	! 27a90 <__malloc_lock>
   151a0:	82 10 00 0f 	mov  %o7, %g1
   151a4:	7f ff ed b1 	call  10868 <_mutex_unlock>
   151a8:	9e 10 00 01 	mov  %g1, %o7

00000000000151ac <_creat64>:
   151ac:	82 10 20 e0 	mov  0xe0, %g1
   151b0:	91 d0 20 08 	ta  8
   151b4:	1a 80 00 05 	bcc  151c8 <_creat64+0x1c>
   151b8:	1b 00 00 57 	sethi  %hi(0x15c00), %o5
   151bc:	9a 13 60 0c 	or  %o5, 0xc, %o5	! 15c0c <_cerror>
   151c0:	81 c3 40 00 	jmp  %o5
   151c4:	01 00 00 00 	nop 
   151c8:	81 c3 e0 08 	retl 
   151cc:	01 00 00 00 	nop 

00000000000151d0 <_fstat64>:
   151d0:	82 10 20 d9 	mov  0xd9, %g1	! d9 <_ld_libc+0xd9>
   151d4:	91 d0 20 08 	ta  8
   151d8:	1a 80 00 05 	bcc  151ec <_fstat64+0x1c>
   151dc:	1b 00 00 57 	sethi  %hi(0x15c00), %o5
   151e0:	9a 13 60 0c 	or  %o5, 0xc, %o5	! 15c0c <_cerror>
   151e4:	81 c3 40 00 	jmp  %o5
   151e8:	01 00 00 00 	nop 
   151ec:	81 c3 e0 08 	retl 
   151f0:	90 10 00 00 	mov  %g0, %o0

00000000000151f4 <__open64>:
   151f4:	82 10 20 e1 	mov  0xe1, %g1
   151f8:	91 d0 20 08 	ta  8
   151fc:	1a 80 00 05 	bcc  15210 <__open64+0x1c>
   15200:	1b 00 00 57 	sethi  %hi(0x15c00), %o5
   15204:	9a 13 60 0c 	or  %o5, 0xc, %o5	! 15c0c <_cerror>
   15208:	81 c3 40 00 	jmp  %o5
   1520c:	01 00 00 00 	nop 
   15210:	81 c3 e0 08 	retl 
   15214:	01 00 00 00 	nop 

0000000000015218 <_pread64>:
   15218:	d0 23 a0 44 	st  %o0, [ %sp + 0x44 ]
   1521c:	82 10 20 de 	mov  0xde, %g1
   15220:	91 d0 20 08 	ta  8
   15224:	1a 80 00 06 	bcc  1523c <_pread64+0x24>
   15228:	80 a2 20 5b 	cmp  %o0, 0x5b
   1522c:	22 bf ff fc 	be,a   1521c <_pread64+0x4>
   15230:	d0 03 a0 44 	ld  [ %sp + 0x44 ], %o0
   15234:	10 80 02 76 	b  15c0c <_cerror>
   15238:	01 00 00 00 	nop 
   1523c:	81 c3 e0 08 	retl 
   15240:	01 00 00 00 	nop 

0000000000015244 <_pwrite64>:
   15244:	d0 23 a0 44 	st  %o0, [ %sp + 0x44 ]
   15248:	82 10 20 df 	mov  0xdf, %g1
   1524c:	91 d0 20 08 	ta  8
   15250:	1a 80 00 06 	bcc  15268 <_pwrite64+0x24>
   15254:	80 a2 20 5b 	cmp  %o0, 0x5b
   15258:	22 bf ff fc 	be,a   15248 <_pwrite64+0x4>
   1525c:	d0 03 a0 44 	ld  [ %sp + 0x44 ], %o0
   15260:	10 80 02 6b 	b  15c0c <_cerror>
   15264:	01 00 00 00 	nop 
   15268:	81 c3 e0 08 	retl 
   1526c:	01 00 00 00 	nop 

0000000000015270 <_stat64>:
   15270:	82 10 20 d7 	mov  0xd7, %g1	! d7 <_ld_libc+0xd7>
   15274:	91 d0 20 08 	ta  8
   15278:	1a 80 00 05 	bcc  1528c <_stat64+0x1c>
   1527c:	1b 00 00 57 	sethi  %hi(0x15c00), %o5
   15280:	9a 13 60 0c 	or  %o5, 0xc, %o5	! 15c0c <_cerror>
   15284:	81 c3 40 00 	jmp  %o5
   15288:	01 00 00 00 	nop 
   1528c:	81 c3 e0 08 	retl 
   15290:	01 00 00 00 	nop 

0000000000015294 <__clock_getres>:
   15294:	82 10 20 c1 	mov  0xc1, %g1	! c1 <_ld_libc+0xc1>
   15298:	91 d0 20 08 	ta  8
   1529c:	1a 80 00 05 	bcc  152b0 <__clock_getres+0x1c>
   152a0:	1b 00 00 57 	sethi  %hi(0x15c00), %o5
   152a4:	9a 13 60 0c 	or  %o5, 0xc, %o5	! 15c0c <_cerror>
   152a8:	81 c3 40 00 	jmp  %o5
   152ac:	01 00 00 00 	nop 
   152b0:	81 c3 e0 08 	retl 
   152b4:	01 00 00 00 	nop 

00000000000152b8 <__clock_gettime>:
   152b8:	80 a2 20 00 	cmp  %o0, 0
   152bc:	02 80 00 03 	be  152c8 <__clock_gettime+0x10>
   152c0:	80 a2 20 03 	cmp  %o0, 3
   152c4:	12 80 00 07 	bne  152e0 <__clock_gettime+0x28>
   152c8:	9a 10 00 09 	mov  %o1, %o5
   152cc:	91 d0 20 27 	ta  0x27
   152d0:	d0 23 40 00 	st  %o0, [ %o5 ]
   152d4:	d2 23 60 04 	st  %o1, [ %o5 + 4 ]
   152d8:	81 c3 e0 08 	retl 
   152dc:	90 10 00 00 	mov  %g0, %o0
   152e0:	82 10 20 bf 	mov  0xbf, %g1
   152e4:	91 d0 20 08 	ta  8
   152e8:	1a 80 00 05 	bcc  152fc <__clock_gettime+0x44>
   152ec:	1b 00 00 57 	sethi  %hi(0x15c00), %o5
   152f0:	9a 13 60 0c 	or  %o5, 0xc, %o5	! 15c0c <_cerror>
   152f4:	81 c3 40 00 	jmp  %o5
   152f8:	01 00 00 00 	nop 
   152fc:	81 c3 e0 08 	retl 
   15300:	01 00 00 00 	nop 

0000000000015304 <__clock_settime>:
   15304:	82 10 20 c0 	mov  0xc0, %g1	! c0 <_ld_libc+0xc0>
   15308:	91 d0 20 08 	ta  8
   1530c:	1a 80 00 05 	bcc  15320 <__clock_settime+0x1c>
   15310:	1b 00 00 57 	sethi  %hi(0x15c00), %o5
   15314:	9a 13 60 0c 	or  %o5, 0xc, %o5	! 15c0c <_cerror>
   15318:	81 c3 40 00 	jmp  %o5
   1531c:	01 00 00 00 	nop 
   15320:	81 c3 e0 08 	retl 
   15324:	01 00 00 00 	nop 

0000000000015328 <__timer_create>:
   15328:	82 10 20 c2 	mov  0xc2, %g1	! c2 <_ld_libc+0xc2>
   1532c:	91 d0 20 08 	ta  8
   15330:	1a 80 00 05 	bcc  15344 <__timer_create+0x1c>
   15334:	1b 00 00 57 	sethi  %hi(0x15c00), %o5
   15338:	9a 13 60 0c 	or  %o5, 0xc, %o5	! 15c0c <_cerror>
   1533c:	81 c3 40 00 	jmp  %o5
   15340:	01 00 00 00 	nop 
   15344:	81 c3 e0 08 	retl 
   15348:	01 00 00 00 	nop 

000000000001534c <__timer_delete>:
   1534c:	82 10 20 c3 	mov  0xc3, %g1	! c3 <_ld_libc+0xc3>
   15350:	91 d0 20 08 	ta  8
   15354:	1a 80 00 05 	bcc  15368 <__timer_delete+0x1c>
   15358:	1b 00 00 57 	sethi  %hi(0x15c00), %o5
   1535c:	9a 13 60 0c 	or  %o5, 0xc, %o5	! 15c0c <_cerror>
   15360:	81 c3 40 00 	jmp  %o5
   15364:	01 00 00 00 	nop 
   15368:	81 c3 e0 08 	retl 
   1536c:	01 00 00 00 	nop 

0000000000015370 <__timer_getoverrun>:
   15370:	82 10 20 c6 	mov  0xc6, %g1	! c6 <_ld_libc+0xc6>
   15374:	91 d0 20 08 	ta  8
   15378:	1a 80 00 05 	bcc  1538c <__timer_getoverrun+0x1c>
   1537c:	1b 00 00 57 	sethi  %hi(0x15c00), %o5
   15380:	9a 13 60 0c 	or  %o5, 0xc, %o5	! 15c0c <_cerror>
   15384:	81 c3 40 00 	jmp  %o5
   15388:	01 00 00 00 	nop 
   1538c:	81 c3 e0 08 	retl 
   15390:	01 00 00 00 	nop 

0000000000015394 <__timer_gettime>:
   15394:	82 10 20 c5 	mov  0xc5, %g1	! c5 <_ld_libc+0xc5>
   15398:	91 d0 20 08 	ta  8
   1539c:	1a 80 00 05 	bcc  153b0 <__timer_gettime+0x1c>
   153a0:	1b 00 00 57 	sethi  %hi(0x15c00), %o5
   153a4:	9a 13 60 0c 	or  %o5, 0xc, %o5	! 15c0c <_cerror>
   153a8:	81 c3 40 00 	jmp  %o5
   153ac:	01 00 00 00 	nop 
   153b0:	81 c3 e0 08 	retl 
   153b4:	01 00 00 00 	nop 

00000000000153b8 <__timer_settime>:
   153b8:	82 10 20 c4 	mov  0xc4, %g1	! c4 <_ld_libc+0xc4>
   153bc:	91 d0 20 08 	ta  8
   153c0:	1a 80 00 05 	bcc  153d4 <__timer_settime+0x1c>
   153c4:	1b 00 00 57 	sethi  %hi(0x15c00), %o5
   153c8:	9a 13 60 0c 	or  %o5, 0xc, %o5	! 15c0c <_cerror>
   153cc:	81 c3 40 00 	jmp  %o5
   153d0:	01 00 00 00 	nop 
   153d4:	81 c3 e0 08 	retl 
   153d8:	01 00 00 00 	nop 

00000000000153dc <_libc_nanosleep>:
   153dc:	82 10 20 c7 	mov  0xc7, %g1	! c7 <_ld_libc+0xc7>
   153e0:	91 d0 20 08 	ta  8
   153e4:	1a 80 00 05 	bcc  153f8 <_libc_nanosleep+0x1c>
   153e8:	1b 00 00 57 	sethi  %hi(0x15c00), %o5
   153ec:	9a 13 60 0c 	or  %o5, 0xc, %o5	! 15c0c <_cerror>
   153f0:	81 c3 40 00 	jmp  %o5
   153f4:	01 00 00 00 	nop 
   153f8:	81 c3 e0 08 	retl 
   153fc:	01 00 00 00 	nop 

0000000000015400 <__fcntl>:
   15400:	d0 23 a0 44 	st  %o0, [ %sp + 0x44 ]
   15404:	82 10 20 3e 	mov  0x3e, %g1
   15408:	91 d0 20 08 	ta  8
   1540c:	1a 80 00 06 	bcc  15424 <__fcntl+0x24>
   15410:	80 a2 20 5b 	cmp  %o0, 0x5b
   15414:	22 bf ff fc 	be,a   15404 <__fcntl+0x4>
   15418:	d0 03 a0 44 	ld  [ %sp + 0x44 ], %o0
   1541c:	10 80 01 fc 	b  15c0c <_cerror>
   15420:	01 00 00 00 	nop 
   15424:	81 c3 e0 08 	retl 
   15428:	01 00 00 00 	nop 

000000000001542c <__sigqueue>:
   1542c:	d4 02 80 00 	ld  [ %o2 ], %o2
   15430:	82 10 20 be 	mov  0xbe, %g1
   15434:	91 d0 20 08 	ta  8
   15438:	1a 80 00 05 	bcc  1544c <__sigqueue+0x20>
   1543c:	1b 00 00 57 	sethi  %hi(0x15c00), %o5
   15440:	9a 13 60 0c 	or  %o5, 0xc, %o5	! 15c0c <_cerror>
   15444:	81 c3 40 00 	jmp  %o5
   15448:	01 00 00 00 	nop 
   1544c:	81 c3 e0 08 	retl 
   15450:	01 00 00 00 	nop 

0000000000015454 <_libc_sigtimedwait>:
   15454:	82 10 20 90 	mov  0x90, %g1	! 90 <_ld_libc+0x90>
   15458:	91 d0 20 08 	ta  8
   1545c:	1a 80 00 05 	bcc  15470 <_libc_sigtimedwait+0x1c>
   15460:	1b 00 00 57 	sethi  %hi(0x15c00), %o5
   15464:	9a 13 60 0c 	or  %o5, 0xc, %o5	! 15c0c <_cerror>
   15468:	81 c3 40 00 	jmp  %o5
   1546c:	01 00 00 00 	nop 
   15470:	81 c3 e0 08 	retl 
   15474:	01 00 00 00 	nop 

0000000000015478 <_so_getsockopt>:
   15478:	82 10 20 f5 	mov  0xf5, %g1	! f5 <_ld_libc+0xf5>
   1547c:	91 d0 20 08 	ta  8
   15480:	1a 80 00 05 	bcc  15494 <_so_getsockopt+0x1c>
   15484:	1b 00 00 57 	sethi  %hi(0x15c00), %o5
   15488:	9a 13 60 0c 	or  %o5, 0xc, %o5	! 15c0c <_cerror>
   1548c:	81 c3 40 00 	jmp  %o5
   15490:	01 00 00 00 	nop 
   15494:	81 c3 e0 08 	retl 
   15498:	01 00 00 00 	nop 

000000000001549c <_so_setsockopt>:
   1549c:	82 10 20 f6 	mov  0xf6, %g1	! f6 <_ld_libc+0xf6>
   154a0:	91 d0 20 08 	ta  8
   154a4:	1a 80 00 05 	bcc  154b8 <_so_setsockopt+0x1c>
   154a8:	1b 00 00 57 	sethi  %hi(0x15c00), %o5
   154ac:	9a 13 60 0c 	or  %o5, 0xc, %o5	! 15c0c <_cerror>
   154b0:	81 c3 40 00 	jmp  %o5
   154b4:	01 00 00 00 	nop 
   154b8:	81 c3 e0 08 	retl 
   154bc:	01 00 00 00 	nop 

00000000000154c0 <_libc_alarm>:
   154c0:	82 10 20 1b 	mov  0x1b, %g1	! 1b <_ld_libc+0x1b>
   154c4:	91 d0 20 08 	ta  8
   154c8:	81 c3 e0 08 	retl 
   154cc:	01 00 00 00 	nop 

00000000000154d0 <_brk_unlocked>:
   154d0:	94 10 00 08 	mov  %o0, %o2
   154d4:	82 10 20 11 	mov  0x11, %g1
   154d8:	91 d0 20 08 	ta  8
   154dc:	1a 80 00 05 	bcc  154f0 <_brk_unlocked+0x20>
   154e0:	1b 00 00 57 	sethi  %hi(0x15c00), %o5
   154e4:	9a 13 60 0c 	or  %o5, 0xc, %o5	! 15c0c <_cerror>
   154e8:	81 c3 40 00 	jmp  %o5
   154ec:	01 00 00 00 	nop 
   154f0:	03 00 00 9e 	sethi  %hi(0x27800), %g1
   154f4:	d4 20 62 c0 	st  %o2, [ %g1 + 0x2c0 ]	! 27ac0 <_nd>
   154f8:	81 c3 e0 08 	retl 
   154fc:	90 10 00 00 	mov  %g0, %o0

0000000000015500 <_close>:
   15500:	82 10 20 06 	mov  6, %g1
   15504:	91 d0 20 08 	ta  8
   15508:	1a 80 00 05 	bcc  1551c <_close+0x1c>
   1550c:	1b 00 00 57 	sethi  %hi(0x15c00), %o5
   15510:	9a 13 60 0c 	or  %o5, 0xc, %o5	! 15c0c <_cerror>
   15514:	81 c3 40 00 	jmp  %o5
   15518:	01 00 00 00 	nop 
   1551c:	81 c3 e0 08 	retl 
   15520:	90 10 00 00 	mov  %g0, %o0

0000000000015524 <_creat>:
   15524:	82 10 20 08 	mov  8, %g1
   15528:	91 d0 20 08 	ta  8
   1552c:	1a 80 00 05 	bcc  15540 <_creat+0x1c>
   15530:	1b 00 00 57 	sethi  %hi(0x15c00), %o5
   15534:	9a 13 60 0c 	or  %o5, 0xc, %o5	! 15c0c <_cerror>
   15538:	81 c3 40 00 	jmp  %o5
   1553c:	01 00 00 00 	nop 
   15540:	81 c3 e0 08 	retl 
   15544:	01 00 00 00 	nop 

0000000000015548 <__fdsync>:
   15548:	82 10 20 3a 	mov  0x3a, %g1	! 3a <_ld_libc+0x3a>
   1554c:	91 d0 20 08 	ta  8
   15550:	1a 80 00 05 	bcc  15564 <__fdsync+0x1c>
   15554:	1b 00 00 57 	sethi  %hi(0x15c00), %o5
   15558:	9a 13 60 0c 	or  %o5, 0xc, %o5	! 15c0c <_cerror>
   1555c:	81 c3 40 00 	jmp  %o5
   15560:	01 00 00 00 	nop 
   15564:	81 c3 e0 08 	retl 
   15568:	90 10 00 00 	mov  %g0, %o0

000000000001556c <_libc_fork>:
   1556c:	82 10 20 02 	mov  2, %g1
   15570:	91 d0 20 08 	ta  8
   15574:	1a 80 00 05 	bcc  15588 <_libc_fork+0x1c>
   15578:	1b 00 00 57 	sethi  %hi(0x15c00), %o5
   1557c:	9a 13 60 0c 	or  %o5, 0xc, %o5	! 15c0c <_cerror>
   15580:	81 c3 40 00 	jmp  %o5
   15584:	01 00 00 00 	nop 
   15588:	80 90 00 09 	tst  %o1
   1558c:	32 80 00 02 	bne,a   15594 <_libc_fork+0x28>
   15590:	90 10 00 00 	mov  %g0, %o0
   15594:	81 c3 e0 08 	retl 
   15598:	01 00 00 00 	nop 

000000000001559c <_libc_fork1>:
   1559c:	82 10 20 8f 	mov  0x8f, %g1	! 8f <_ld_libc+0x8f>
   155a0:	91 d0 20 08 	ta  8
   155a4:	1a 80 00 05 	bcc  155b8 <_libc_fork1+0x1c>
   155a8:	1b 00 00 57 	sethi  %hi(0x15c00), %o5
   155ac:	9a 13 60 0c 	or  %o5, 0xc, %o5	! 15c0c <_cerror>
   155b0:	81 c3 40 00 	jmp  %o5
   155b4:	01 00 00 00 	nop 
   155b8:	80 90 00 09 	tst  %o1
   155bc:	32 80 00 02 	bne,a   155c4 <_libc_fork1+0x28>
   155c0:	90 10 00 00 	mov  %g0, %o0
   155c4:	81 c3 e0 08 	retl 
   155c8:	01 00 00 00 	nop 

00000000000155cc <_getmsg>:
   155cc:	d0 23 a0 44 	st  %o0, [ %sp + 0x44 ]
   155d0:	82 10 20 55 	mov  0x55, %g1
   155d4:	91 d0 20 08 	ta  8
   155d8:	1a 80 00 06 	bcc  155f0 <_getmsg+0x24>
   155dc:	80 a2 20 5b 	cmp  %o0, 0x5b
   155e0:	22 bf ff fc 	be,a   155d0 <_getmsg+0x4>
   155e4:	d0 03 a0 44 	ld  [ %sp + 0x44 ], %o0
   155e8:	10 80 01 89 	b  15c0c <_cerror>
   155ec:	01 00 00 00 	nop 
   155f0:	81 c3 e0 08 	retl 
   155f4:	01 00 00 00 	nop 

00000000000155f8 <_getpmsg>:
   155f8:	d0 23 a0 44 	st  %o0, [ %sp + 0x44 ]
   155fc:	82 10 20 84 	mov  0x84, %g1
   15600:	91 d0 20 08 	ta  8
   15604:	1a 80 00 06 	bcc  1561c <_getpmsg+0x24>
   15608:	80 a2 20 5b 	cmp  %o0, 0x5b
   1560c:	22 bf ff fc 	be,a   155fc <_getpmsg+0x4>
   15610:	d0 03 a0 44 	ld  [ %sp + 0x44 ], %o0
   15614:	10 80 01 7e 	b  15c0c <_cerror>
   15618:	01 00 00 00 	nop 
   1561c:	81 c3 e0 08 	retl 
   15620:	01 00 00 00 	nop 

0000000000015624 <_ioctl>:
   15624:	d0 23 a0 44 	st  %o0, [ %sp + 0x44 ]
   15628:	82 10 20 36 	mov  0x36, %g1
   1562c:	91 d0 20 08 	ta  8
   15630:	1a 80 00 06 	bcc  15648 <_ioctl+0x24>
   15634:	80 a2 20 5b 	cmp  %o0, 0x5b
   15638:	22 bf ff fc 	be,a   15628 <_ioctl+0x4>
   1563c:	d0 03 a0 44 	ld  [ %sp + 0x44 ], %o0
   15640:	10 80 01 73 	b  15c0c <_cerror>
   15644:	01 00 00 00 	nop 
   15648:	81 c3 e0 08 	retl 
   1564c:	01 00 00 00 	nop 

0000000000015650 <_memcntl>:
   15650:	82 10 20 83 	mov  0x83, %g1	! 83 <_ld_libc+0x83>
   15654:	91 d0 20 08 	ta  8
   15658:	1a 80 00 05 	bcc  1566c <_memcntl+0x1c>
   1565c:	1b 00 00 57 	sethi  %hi(0x15c00), %o5
   15660:	9a 13 60 0c 	or  %o5, 0xc, %o5	! 15c0c <_cerror>
   15664:	81 c3 40 00 	jmp  %o5
   15668:	01 00 00 00 	nop 
   1566c:	81 c3 e0 08 	retl 
   15670:	90 10 00 00 	mov  %g0, %o0

0000000000015674 <__open>:
   15674:	82 10 20 05 	mov  5, %g1
   15678:	91 d0 20 08 	ta  8
   1567c:	1a 80 00 05 	bcc  15690 <__open+0x1c>
   15680:	1b 00 00 57 	sethi  %hi(0x15c00), %o5
   15684:	9a 13 60 0c 	or  %o5, 0xc, %o5	! 15c0c <_cerror>
   15688:	81 c3 40 00 	jmp  %o5
   1568c:	01 00 00 00 	nop 
   15690:	81 c3 e0 08 	retl 
   15694:	01 00 00 00 	nop 

0000000000015698 <_pause>:
   15698:	82 10 20 1d 	mov  0x1d, %g1	! 1d <_ld_libc+0x1d>
   1569c:	91 d0 20 08 	ta  8
   156a0:	1a 80 00 05 	bcc  156b4 <_pause+0x1c>
   156a4:	1b 00 00 57 	sethi  %hi(0x15c00), %o5
   156a8:	9a 13 60 0c 	or  %o5, 0xc, %o5	! 15c0c <_cerror>
   156ac:	81 c3 40 00 	jmp  %o5
   156b0:	01 00 00 00 	nop 
   156b4:	81 c3 e0 08 	retl 
   156b8:	01 00 00 00 	nop 

00000000000156bc <_poll>:
   156bc:	82 10 20 57 	mov  0x57, %g1	! 57 <_ld_libc+0x57>
   156c0:	91 d0 20 08 	ta  8
   156c4:	1a 80 00 05 	bcc  156d8 <_poll+0x1c>
   156c8:	1b 00 00 57 	sethi  %hi(0x15c00), %o5
   156cc:	9a 13 60 0c 	or  %o5, 0xc, %o5	! 15c0c <_cerror>
   156d0:	81 c3 40 00 	jmp  %o5
   156d4:	01 00 00 00 	nop 
   156d8:	81 c3 e0 08 	retl 
   156dc:	01 00 00 00 	nop 

00000000000156e0 <_pread>:
   156e0:	d0 23 a0 44 	st  %o0, [ %sp + 0x44 ]
   156e4:	82 10 20 ad 	mov  0xad, %g1
   156e8:	91 d0 20 08 	ta  8
   156ec:	1a 80 00 06 	bcc  15704 <_pread+0x24>
   156f0:	80 a2 20 5b 	cmp  %o0, 0x5b
   156f4:	22 bf ff fc 	be,a   156e4 <_pread+0x4>
   156f8:	d0 03 a0 44 	ld  [ %sp + 0x44 ], %o0
   156fc:	10 80 01 44 	b  15c0c <_cerror>
   15700:	01 00 00 00 	nop 
   15704:	81 c3 e0 08 	retl 
   15708:	01 00 00 00 	nop 

000000000001570c <_putmsg>:
   1570c:	d0 23 a0 44 	st  %o0, [ %sp + 0x44 ]
   15710:	82 10 20 56 	mov  0x56, %g1
   15714:	91 d0 20 08 	ta  8
   15718:	1a 80 00 06 	bcc  15730 <_putmsg+0x24>
   1571c:	80 a2 20 5b 	cmp  %o0, 0x5b
   15720:	22 bf ff fc 	be,a   15710 <_putmsg+0x4>
   15724:	d0 03 a0 44 	ld  [ %sp + 0x44 ], %o0
   15728:	10 80 01 39 	b  15c0c <_cerror>
   1572c:	01 00 00 00 	nop 
   15730:	81 c3 e0 08 	retl 
   15734:	01 00 00 00 	nop 

0000000000015738 <_putpmsg>:
   15738:	d0 23 a0 44 	st  %o0, [ %sp + 0x44 ]
   1573c:	82 10 20 85 	mov  0x85, %g1
   15740:	91 d0 20 08 	ta  8
   15744:	1a 80 00 06 	bcc  1575c <_putpmsg+0x24>
   15748:	80 a2 20 5b 	cmp  %o0, 0x5b
   1574c:	22 bf ff fc 	be,a   1573c <_putpmsg+0x4>
   15750:	d0 03 a0 44 	ld  [ %sp + 0x44 ], %o0
   15754:	10 80 01 2e 	b  15c0c <_cerror>
   15758:	01 00 00 00 	nop 
   1575c:	81 c3 e0 08 	retl 
   15760:	01 00 00 00 	nop 

0000000000015764 <_pwrite>:
   15764:	d0 23 a0 44 	st  %o0, [ %sp + 0x44 ]
   15768:	82 10 20 ae 	mov  0xae, %g1
   1576c:	91 d0 20 08 	ta  8
   15770:	1a 80 00 06 	bcc  15788 <_pwrite+0x24>
   15774:	80 a2 20 5b 	cmp  %o0, 0x5b
   15778:	22 bf ff fc 	be,a   15768 <_pwrite+0x4>
   1577c:	d0 03 a0 44 	ld  [ %sp + 0x44 ], %o0
   15780:	10 80 01 23 	b  15c0c <_cerror>
   15784:	01 00 00 00 	nop 
   15788:	81 c3 e0 08 	retl 
   1578c:	01 00 00 00 	nop 

0000000000015790 <_read>:
   15790:	d0 23 a0 44 	st  %o0, [ %sp + 0x44 ]
   15794:	82 10 20 03 	mov  3, %g1
   15798:	91 d0 20 08 	ta  8
   1579c:	1a 80 00 06 	bcc  157b4 <_read+0x24>
   157a0:	80 a2 20 5b 	cmp  %o0, 0x5b
   157a4:	22 bf ff fc 	be,a   15794 <_read+0x4>
   157a8:	d0 03 a0 44 	ld  [ %sp + 0x44 ], %o0
   157ac:	10 80 01 18 	b  15c0c <_cerror>
   157b0:	01 00 00 00 	nop 
   157b4:	81 c3 e0 08 	retl 
   157b8:	01 00 00 00 	nop 

00000000000157bc <_readv>:
   157bc:	d0 23 a0 44 	st  %o0, [ %sp + 0x44 ]
   157c0:	82 10 20 79 	mov  0x79, %g1
   157c4:	91 d0 20 08 	ta  8
   157c8:	1a 80 00 06 	bcc  157e0 <_readv+0x24>
   157cc:	80 a2 20 5b 	cmp  %o0, 0x5b
   157d0:	22 bf ff fc 	be,a   157c0 <_readv+0x4>
   157d4:	d0 03 a0 44 	ld  [ %sp + 0x44 ], %o0
   157d8:	10 80 01 0d 	b  15c0c <_cerror>
   157dc:	01 00 00 00 	nop 
   157e0:	81 c3 e0 08 	retl 
   157e4:	01 00 00 00 	nop 

00000000000157e8 <_libc_setitimer>:
   157e8:	82 10 20 9e 	mov  0x9e, %g1	! 9e <_ld_libc+0x9e>
   157ec:	91 d0 20 08 	ta  8
   157f0:	1a 80 00 05 	bcc  15804 <_libc_setitimer+0x1c>
   157f4:	1b 00 00 57 	sethi  %hi(0x15c00), %o5
   157f8:	9a 13 60 0c 	or  %o5, 0xc, %o5	! 15c0c <_cerror>
   157fc:	81 c3 40 00 	jmp  %o5
   15800:	01 00 00 00 	nop 
   15804:	81 c3 e0 08 	retl 
   15808:	01 00 00 00 	nop 

000000000001580c <_getsid>:
   1580c:	92 10 00 08 	mov  %o0, %o1
   15810:	10 80 00 0b 	b  1583c <_setpgid+0x10>
   15814:	90 10 20 02 	mov  2, %o0

0000000000015818 <_setsid>:
   15818:	10 80 00 09 	b  1583c <_setpgid+0x10>
   1581c:	90 10 20 03 	mov  3, %o0

0000000000015820 <_getpgid>:
   15820:	92 10 00 08 	mov  %o0, %o1
   15824:	10 80 00 06 	b  1583c <_setpgid+0x10>
   15828:	90 10 20 04 	mov  4, %o0

000000000001582c <_setpgid>:
   1582c:	94 10 00 09 	mov  %o1, %o2
   15830:	92 10 00 08 	mov  %o0, %o1
   15834:	10 80 00 02 	b  1583c <_setpgid+0x10>
   15838:	90 10 20 05 	mov  5, %o0
   1583c:	82 10 20 27 	mov  0x27, %g1
   15840:	91 d0 20 08 	ta  8
   15844:	1a 80 00 05 	bcc  15858 <_setpgid+0x2c>
   15848:	1b 00 00 57 	sethi  %hi(0x15c00), %o5
   1584c:	9a 13 60 0c 	or  %o5, 0xc, %o5	! 15c0c <_cerror>
   15850:	81 c3 40 00 	jmp  %o5
   15854:	01 00 00 00 	nop 
   15858:	81 c3 e0 08 	retl 
   1585c:	01 00 00 00 	nop 

0000000000015860 <sigacthandler>:
   15860:	9d e3 bf a0 	save  %sp, -96, %sp
   15864:	03 00 00 9e 	sethi  %hi(0x27800), %g1
   15868:	92 10 00 19 	mov  %i1, %o1
   1586c:	91 2e 20 02 	sll  %i0, 2, %o0
   15870:	94 00 62 c4 	add  %g1, 0x2c4, %o2
   15874:	e0 02 00 0a 	ld  [ %o0 + %o2 ], %l0
   15878:	90 10 00 18 	mov  %i0, %o0
   1587c:	9f c4 00 00 	call  %l0
   15880:	94 10 00 1a 	mov  %i2, %o2
   15884:	80 a6 20 08 	cmp  %i0, 8
   15888:	12 80 00 1b 	bne  158f4 <sigacthandler+0x94>
   1588c:	01 00 00 00 	nop 
   15890:	d0 0e a1 00 	ldub  [ %i2 + 0x100 ], %o0
   15894:	80 a2 20 00 	cmp  %o0, 0
   15898:	02 80 00 17 	be  158f4 <sigacthandler+0x94>
   1589c:	01 00 00 00 	nop 
   158a0:	90 22 20 01 	dec  %o0
   158a4:	80 8a 20 ff 	btst  0xff, %o0
   158a8:	04 80 00 13 	ble  158f4 <sigacthandler+0x94>
   158ac:	d0 2e a1 00 	stb  %o0, [ %i2 + 0x100 ]
   158b0:	d0 0e a1 00 	ldub  [ %i2 + 0x100 ], %o0
   158b4:	d6 06 a0 f8 	ld  [ %i2 + 0xf8 ], %o3
   158b8:	80 a2 20 00 	cmp  %o0, 0
   158bc:	04 80 00 0e 	ble  158f4 <sigacthandler+0x94>
   158c0:	9a 10 20 00 	clr  %o5
   158c4:	91 2b 60 03 	sll  %o5, 3, %o0
   158c8:	92 02 c0 08 	add  %o3, %o0, %o1
   158cc:	d4 02 60 08 	ld  [ %o1 + 8 ], %o2
   158d0:	d4 22 00 0b 	st  %o2, [ %o0 + %o3 ]
   158d4:	d0 02 60 0c 	ld  [ %o1 + 0xc ], %o0
   158d8:	d0 22 60 04 	st  %o0, [ %o1 + 4 ]
   158dc:	90 03 60 01 	add  %o5, 1, %o0
   158e0:	9a 0a 20 ff 	and  %o0, 0xff, %o5
   158e4:	d0 0e a1 00 	ldub  [ %i2 + 0x100 ], %o0
   158e8:	80 a3 40 08 	cmp  %o5, %o0
   158ec:	06 bf ff f7 	bl  158c8 <sigacthandler+0x68>
   158f0:	91 2b 60 03 	sll  %o5, 3, %o0
   158f4:	40 00 00 8b 	call  15b20 <_setcontext>
   158f8:	91 e8 00 1a 	restore  %g0, %i2, %o0

00000000000158fc <_libc_sigaction>:
   158fc:	9d e3 bf 80 	save  %sp, -128, %sp
   15900:	98 90 00 18 	orcc  %g0, %i0, %o4
   15904:	04 80 00 33 	ble  159d0 <_libc_sigaction+0xd4>
   15908:	80 a6 20 2e 	cmp  %i0, 0x2e
   1590c:	16 80 00 31 	bge  159d0 <_libc_sigaction+0xd4>
   15910:	96 90 00 19 	orcc  %g0, %i1, %o3
   15914:	b3 2e 20 02 	sll  %i0, 2, %i1
   15918:	11 00 00 9e 	sethi  %hi(0x27800), %o0
   1591c:	b6 10 00 1a 	mov  %i2, %i3
   15920:	b0 02 22 c4 	add  %o0, 0x2c4, %i0
   15924:	92 10 00 0b 	mov  %o3, %o1
   15928:	f4 06 40 18 	ld  [ %i1 + %i0 ], %i2
   1592c:	02 80 00 15 	be  15980 <_libc_sigaction+0x84>
   15930:	90 10 00 0c 	mov  %o4, %o0
   15934:	90 07 bf e4 	add  %fp, -28, %o0
   15938:	92 10 20 1c 	mov  0x1c, %o1
   1593c:	d4 02 c0 09 	ld  [ %o3 + %o1 ], %o2
   15940:	92 a2 60 04 	subcc  %o1, 4, %o1
   15944:	16 bf ff fe 	bge  1593c <_libc_sigaction+0x40>
   15948:	d4 22 00 09 	st  %o2, [ %o0 + %o1 ]
   1594c:	d0 07 bf e4 	ld  [ %fp + -28 ], %o0
   15950:	92 07 bf e0 	add  %fp, -32, %o1
   15954:	80 a2 20 00 	cmp  %o0, 0
   15958:	22 80 00 0a 	be,a   15980 <_libc_sigaction+0x84>
   1595c:	90 10 00 0c 	mov  %o4, %o0
   15960:	80 a2 20 01 	cmp  %o0, 1
   15964:	22 80 00 07 	be,a   15980 <_libc_sigaction+0x84>
   15968:	90 10 00 0c 	mov  %o4, %o0
   1596c:	d0 26 40 18 	st  %o0, [ %i1 + %i0 ]
   15970:	11 00 00 56 	sethi  %hi(0x15800), %o0
   15974:	90 02 20 60 	add  %o0, 0x60, %o0	! 15860 <sigacthandler>
   15978:	d0 27 bf e4 	st  %o0, [ %fp + -28 ]
   1597c:	90 10 00 0c 	mov  %o4, %o0
   15980:	40 00 00 25 	call  15a14 <__sigaction>
   15984:	94 10 00 1b 	mov  %i3, %o2
   15988:	80 a2 3f ff 	cmp  %o0, -1
   1598c:	12 80 00 05 	bne  159a0 <_libc_sigaction+0xa4>
   15990:	80 a6 e0 00 	cmp  %i3, 0
   15994:	f4 26 40 18 	st  %i2, [ %i1 + %i0 ]
   15998:	81 c7 e0 08 	ret 
   1599c:	91 e8 3f ff 	restore  %g0, -1, %o0
   159a0:	22 80 00 11 	be,a   159e4 <_libc_sigaction+0xe8>
   159a4:	90 10 20 00 	clr  %o0
   159a8:	d0 06 e0 04 	ld  [ %i3 + 4 ], %o0
   159ac:	80 a2 20 00 	cmp  %o0, 0
   159b0:	22 80 00 0d 	be,a   159e4 <_libc_sigaction+0xe8>
   159b4:	90 10 20 00 	clr  %o0
   159b8:	80 a2 20 01 	cmp  %o0, 1
   159bc:	22 80 00 0a 	be,a   159e4 <_libc_sigaction+0xe8>
   159c0:	90 10 20 00 	clr  %o0
   159c4:	f4 26 e0 04 	st  %i2, [ %i3 + 4 ]
   159c8:	81 c7 e0 08 	ret 
   159cc:	91 e8 20 00 	restore  %g0, 0, %o0
   159d0:	40 00 00 07 	call  159ec <___errno>
   159d4:	01 00 00 00 	nop 
   159d8:	92 10 20 16 	mov  0x16, %o1	! 16 <_ld_libc+0x16>
   159dc:	d2 22 20 00 	st  %o1, [ %o0 ]
   159e0:	90 10 3f ff 	mov  -1, %o0
   159e4:	81 c7 e0 08 	ret 
   159e8:	91 e8 00 08 	restore  %g0, %o0, %o0

00000000000159ec <___errno>:
   159ec:	9d e3 bf a0 	save  %sp, -96, %sp
   159f0:	7f ff ec 70 	call  10bb0 <_thr_main>
   159f4:	01 00 00 00 	nop 
   159f8:	80 90 00 08 	tst  %o0
   159fc:	02 80 00 04 	be  15a0c <___errno+0x20>
   15a00:	11 00 00 9f 	sethi  %hi(0x27c00), %o0
   15a04:	81 c7 e0 08 	ret 
   15a08:	91 ea 22 8c 	restore  %o0, 0x28c, %o0
   15a0c:	7f ff ec 41 	call  10b10 <_thr_errnop>
   15a10:	81 e8 00 00 	restore 

0000000000015a14 <__sigaction>:
   15a14:	82 10 20 62 	mov  0x62, %g1
   15a18:	91 d0 20 08 	ta  8
   15a1c:	1a 80 00 05 	bcc  15a30 <__sigaction+0x1c>
   15a20:	1b 00 00 57 	sethi  %hi(0x15c00), %o5
   15a24:	9a 13 60 0c 	or  %o5, 0xc, %o5	! 15c0c <_cerror>
   15a28:	81 c3 40 00 	jmp  %o5
   15a2c:	01 00 00 00 	nop 
   15a30:	81 c3 e0 08 	retl 
   15a34:	01 00 00 00 	nop 

0000000000015a38 <_sigpending>:
   15a38:	92 10 00 08 	mov  %o0, %o1
   15a3c:	10 80 00 07 	b  15a58 <__sigfillset+0x8>
   15a40:	90 10 20 01 	mov  1, %o0

0000000000015a44 <__mt_sigpending>:
   15a44:	92 10 00 08 	mov  %o0, %o1
   15a48:	10 80 00 04 	b  15a58 <__sigfillset+0x8>
   15a4c:	90 10 20 03 	mov  3, %o0

0000000000015a50 <__sigfillset>:
   15a50:	92 10 00 08 	mov  %o0, %o1
   15a54:	90 10 20 02 	mov  2, %o0
   15a58:	82 10 20 63 	mov  0x63, %g1
   15a5c:	91 d0 20 08 	ta  8
   15a60:	1a 80 00 05 	bcc  15a74 <__sigfillset+0x24>
   15a64:	1b 00 00 57 	sethi  %hi(0x15c00), %o5
   15a68:	9a 13 60 0c 	or  %o5, 0xc, %o5	! 15c0c <_cerror>
   15a6c:	81 c3 40 00 	jmp  %o5
   15a70:	01 00 00 00 	nop 
   15a74:	81 c3 e0 08 	retl 
   15a78:	01 00 00 00 	nop 

0000000000015a7c <_libc_sigprocmask>:
   15a7c:	82 10 20 5f 	mov  0x5f, %g1	! 5f <_ld_libc+0x5f>
   15a80:	91 d0 20 08 	ta  8
   15a84:	1a 80 00 05 	bcc  15a98 <_libc_sigprocmask+0x1c>
   15a88:	1b 00 00 57 	sethi  %hi(0x15c00), %o5
   15a8c:	9a 13 60 0c 	or  %o5, 0xc, %o5	! 15c0c <_cerror>
   15a90:	81 c3 40 00 	jmp  %o5
   15a94:	01 00 00 00 	nop 
   15a98:	81 c3 e0 08 	retl 
   15a9c:	01 00 00 00 	nop 

0000000000015aa0 <_sigsuspend>:
   15aa0:	82 10 20 60 	mov  0x60, %g1	! 60 <_ld_libc+0x60>
   15aa4:	91 d0 20 08 	ta  8
   15aa8:	1a 80 00 05 	bcc  15abc <_sigsuspend+0x1c>
   15aac:	1b 00 00 57 	sethi  %hi(0x15c00), %o5
   15ab0:	9a 13 60 0c 	or  %o5, 0xc, %o5	! 15c0c <_cerror>
   15ab4:	81 c3 40 00 	jmp  %o5
   15ab8:	01 00 00 00 	nop 
   15abc:	81 c3 e0 08 	retl 
   15ac0:	01 00 00 00 	nop 

0000000000015ac4 <_libc_sigwait>:
   15ac4:	92 10 20 00 	clr  %o1	! 0 <_ld_libc>
   15ac8:	94 10 20 00 	clr  %o2
   15acc:	82 10 20 90 	mov  0x90, %g1
   15ad0:	91 d0 20 08 	ta  8
   15ad4:	1a 80 00 05 	bcc  15ae8 <_libc_sigwait+0x24>
   15ad8:	1b 00 00 57 	sethi  %hi(0x15c00), %o5
   15adc:	9a 13 60 0c 	or  %o5, 0xc, %o5	! 15c0c <_cerror>
   15ae0:	81 c3 40 00 	jmp  %o5
   15ae4:	01 00 00 00 	nop 
   15ae8:	81 c3 e0 08 	retl 
   15aec:	01 00 00 00 	nop 

0000000000015af0 <_syscall>:
   15af0:	82 10 20 00 	clr  %g1	! 0 <_ld_libc>
   15af4:	91 d0 20 08 	ta  8
   15af8:	1a 80 00 05 	bcc  15b0c <_syscall+0x1c>
   15afc:	1b 00 00 57 	sethi  %hi(0x15c00), %o5
   15b00:	9a 13 60 0c 	or  %o5, 0xc, %o5	! 15c0c <_cerror>
   15b04:	81 c3 40 00 	jmp  %o5
   15b08:	01 00 00 00 	nop 
   15b0c:	81 c3 e0 08 	retl 
   15b10:	01 00 00 00 	nop 

0000000000015b14 <__getcontext>:
   15b14:	92 10 00 08 	mov  %o0, %o1
   15b18:	10 80 00 04 	b  15b28 <_setcontext+0x8>
   15b1c:	90 10 20 00 	clr  %o0

0000000000015b20 <_setcontext>:
   15b20:	92 10 00 08 	mov  %o0, %o1
   15b24:	90 10 20 01 	mov  1, %o0
   15b28:	82 10 20 64 	mov  0x64, %g1
   15b2c:	91 d0 20 08 	ta  8
   15b30:	1a 80 00 05 	bcc  15b44 <_setcontext+0x24>
   15b34:	1b 00 00 57 	sethi  %hi(0x15c00), %o5
   15b38:	9a 13 60 0c 	or  %o5, 0xc, %o5	! 15c0c <_cerror>
   15b3c:	81 c3 40 00 	jmp  %o5
   15b40:	01 00 00 00 	nop 
   15b44:	81 c3 e0 08 	retl 
   15b48:	01 00 00 00 	nop 

0000000000015b4c <_wait>:
   15b4c:	d0 23 a0 44 	st  %o0, [ %sp + 0x44 ]
   15b50:	82 10 20 07 	mov  7, %g1
   15b54:	91 d0 20 08 	ta  8
   15b58:	1a 80 00 06 	bcc  15b70 <_wait+0x24>
   15b5c:	80 a2 20 5b 	cmp  %o0, 0x5b
   15b60:	22 bf ff fc 	be,a   15b50 <_wait+0x4>
   15b64:	d0 03 a0 44 	ld  [ %sp + 0x44 ], %o0
   15b68:	10 80 00 29 	b  15c0c <_cerror>
   15b6c:	01 00 00 00 	nop 
   15b70:	d4 03 a0 44 	ld  [ %sp + 0x44 ], %o2
   15b74:	80 90 00 0a 	tst  %o2
   15b78:	32 80 00 02 	bne,a   15b80 <_wait+0x34>
   15b7c:	d2 22 80 00 	st  %o1, [ %o2 ]
   15b80:	81 c3 e0 08 	retl 
   15b84:	01 00 00 00 	nop 

0000000000015b88 <_waitid>:
   15b88:	d0 23 a0 44 	st  %o0, [ %sp + 0x44 ]
   15b8c:	82 10 20 6b 	mov  0x6b, %g1
   15b90:	91 d0 20 08 	ta  8
   15b94:	1a 80 00 06 	bcc  15bac <_waitid+0x24>
   15b98:	80 a2 20 5b 	cmp  %o0, 0x5b
   15b9c:	22 bf ff fc 	be,a   15b8c <_waitid+0x4>
   15ba0:	d0 03 a0 44 	ld  [ %sp + 0x44 ], %o0
   15ba4:	10 80 00 1a 	b  15c0c <_cerror>
   15ba8:	01 00 00 00 	nop 
   15bac:	81 c3 e0 08 	retl 
   15bb0:	01 00 00 00 	nop 

0000000000015bb4 <_write>:
   15bb4:	d0 23 a0 44 	st  %o0, [ %sp + 0x44 ]
   15bb8:	82 10 20 04 	mov  4, %g1
   15bbc:	91 d0 20 08 	ta  8
   15bc0:	1a 80 00 06 	bcc  15bd8 <_write+0x24>
   15bc4:	80 a2 20 5b 	cmp  %o0, 0x5b
   15bc8:	22 bf ff fc 	be,a   15bb8 <_write+0x4>
   15bcc:	d0 03 a0 44 	ld  [ %sp + 0x44 ], %o0
   15bd0:	10 80 00 0f 	b  15c0c <_cerror>
   15bd4:	01 00 00 00 	nop 
   15bd8:	81 c3 e0 08 	retl 
   15bdc:	01 00 00 00 	nop 

0000000000015be0 <_writev>:
   15be0:	d0 23 a0 44 	st  %o0, [ %sp + 0x44 ]
   15be4:	82 10 20 7a 	mov  0x7a, %g1
   15be8:	91 d0 20 08 	ta  8
   15bec:	1a 80 00 06 	bcc  15c04 <_writev+0x24>
   15bf0:	80 a2 20 5b 	cmp  %o0, 0x5b
   15bf4:	22 bf ff fc 	be,a   15be4 <_writev+0x4>
   15bf8:	d0 03 a0 44 	ld  [ %sp + 0x44 ], %o0
   15bfc:	10 80 00 04 	b  15c0c <_cerror>
   15c00:	01 00 00 00 	nop 
   15c04:	81 c3 e0 08 	retl 
   15c08:	01 00 00 00 	nop 

0000000000015c0c <_cerror>:
   15c0c:	80 a2 20 5b 	cmp  %o0, 0x5b
   15c10:	22 80 00 02 	be,a   15c18 <_cerror+0xc>
   15c14:	90 10 20 04 	mov  4, %o0
   15c18:	9d e3 bf a0 	save  %sp, -96, %sp
   15c1c:	7f ff ff 74 	call  159ec <___errno>
   15c20:	01 00 00 00 	nop 
   15c24:	f0 22 00 00 	st  %i0, [ %o0 ]
   15c28:	81 e8 00 00 	restore 
   15c2c:	81 c3 e0 08 	retl 
   15c30:	90 10 3f ff 	mov  -1, %o0

0000000000015c34 <_cerror64>:
   15c34:	80 a2 20 5b 	cmp  %o0, 0x5b
   15c38:	22 80 00 02 	be,a   15c40 <_cerror64+0xc>
   15c3c:	90 10 20 04 	mov  4, %o0
   15c40:	9d e3 bf a0 	save  %sp, -96, %sp
   15c44:	7f ff ff 6a 	call  159ec <___errno>
   15c48:	01 00 00 00 	nop 
   15c4c:	f0 22 00 00 	st  %i0, [ %o0 ]
   15c50:	81 e8 00 00 	restore 
   15c54:	92 10 3f ff 	mov  -1, %o1
   15c58:	81 c3 e0 08 	retl 
   15c5c:	90 10 3f ff 	mov  -1, %o0

0000000000015c60 <exit>:
   15c60:	9d e3 bf a0 	save  %sp, -96, %sp
   15c64:	03 00 00 9c 	sethi  %hi(0x27000), %g1
   15c68:	fc 20 63 18 	st  %fp, [ %g1 + 0x318 ]	! 27318 <__exit_frame_monitor>
   15c6c:	7f ff e9 79 	call  10250 <_exithandle>
   15c70:	01 00 00 00 	nop 
   15c74:	81 e8 00 00 	restore 
   15c78:	82 10 20 01 	mov  1, %g1
   15c7c:	91 d0 20 08 	ta  8

0000000000015c80 <_kill>:
   15c80:	82 10 20 25 	mov  0x25, %g1
   15c84:	91 d0 20 08 	ta  8
   15c88:	1a 80 00 05 	bcc  15c9c <_kill+0x1c>
   15c8c:	1b 00 00 57 	sethi  %hi(0x15c00), %o5
   15c90:	9a 13 60 0c 	or  %o5, 0xc, %o5	! 15c0c <_cerror>
   15c94:	81 c3 40 00 	jmp  %o5
   15c98:	01 00 00 00 	nop 
   15c9c:	81 c3 e0 08 	retl 
   15ca0:	90 10 00 00 	mov  %g0, %o0

0000000000015ca4 <wait4>:
   15ca4:	9d e3 bf 00 	save  %sp, -256, %sp
   15ca8:	b8 10 00 18 	mov  %i0, %i4
   15cac:	b6 90 00 1b 	orcc  %g0, %i3, %i3
   15cb0:	b0 10 00 19 	mov  %i1, %i0
   15cb4:	02 80 00 07 	be  15cd0 <wait4+0x2c>
   15cb8:	90 07 bf 80 	add  %fp, -128, %o0
   15cbc:	90 10 00 1b 	mov  %i3, %o0
   15cc0:	92 10 20 00 	clr  %o1
   15cc4:	40 00 00 82 	call  15ecc <_memset>
   15cc8:	94 10 20 48 	mov  0x48, %o2
   15ccc:	90 07 bf 80 	add  %fp, -128, %o0
   15cd0:	92 10 20 00 	clr  %o1
   15cd4:	40 00 00 7e 	call  15ecc <_memset>
   15cd8:	94 10 20 80 	mov  0x80, %o2
   15cdc:	40 00 00 96 	call  15f34 <_times>
   15ce0:	90 07 bf 70 	add  %fp, -144, %o0
   15ce4:	80 a2 3f ff 	cmp  %o0, -1
   15ce8:	12 80 00 04 	bne  15cf8 <wait4+0x54>
   15cec:	80 8e bf b3 	btst  -77, %i2
   15cf0:	81 c7 e0 08 	ret 
   15cf4:	91 e8 3f ff 	restore  %g0, -1, %o0
   15cf8:	02 80 00 08 	be  15d18 <wait4+0x74>
   15cfc:	80 a7 20 00 	cmp  %i4, 0
   15d00:	7f ff ff 3b 	call  159ec <___errno>
   15d04:	01 00 00 00 	nop 
   15d08:	92 10 20 16 	mov  0x16, %o1	! 16 <_ld_libc+0x16>
   15d0c:	d2 22 20 00 	st  %o1, [ %o0 ]
   15d10:	81 c7 e0 08 	ret 
   15d14:	91 e8 3f ff 	restore  %g0, -1, %o0
   15d18:	16 80 00 06 	bge  15d30 <wait4+0x8c>
   15d1c:	96 16 a0 03 	or  %i2, 3, %o3
   15d20:	b8 20 00 1c 	neg  %i4
   15d24:	90 10 20 02 	mov  2, %o0
   15d28:	10 80 00 08 	b  15d48 <wait4+0xa4>
   15d2c:	94 07 bf 80 	add  %fp, -128, %o2
   15d30:	12 80 00 04 	bne  15d40 <wait4+0x9c>
   15d34:	90 10 20 07 	mov  7, %o0
   15d38:	10 80 00 04 	b  15d48 <wait4+0xa4>
   15d3c:	94 07 bf 80 	add  %fp, -128, %o2
   15d40:	90 10 20 00 	clr  %o0
   15d44:	94 07 bf 80 	add  %fp, -128, %o2
   15d48:	7f ff ff 90 	call  15b88 <_waitid>
   15d4c:	92 10 00 1c 	mov  %i4, %o1
   15d50:	80 90 00 08 	tst  %o0
   15d54:	12 80 00 40 	bne  15e54 <wait4+0x1b0>
   15d58:	80 8e a0 40 	btst  0x40, %i2
   15d5c:	02 80 00 07 	be  15d78 <wait4+0xd4>
   15d60:	d0 07 bf 8c 	ld  [ %fp + -116 ], %o0
   15d64:	80 a2 20 00 	cmp  %o0, 0
   15d68:	12 80 00 05 	bne  15d7c <wait4+0xd8>
   15d6c:	80 a6 e0 00 	cmp  %i3, 0
   15d70:	81 c7 e0 08 	ret 
   15d74:	91 e8 20 00 	restore  %g0, 0, %o0
   15d78:	80 a6 e0 00 	cmp  %i3, 0
   15d7c:	02 80 00 2d 	be  15e30 <wait4+0x18c>
   15d80:	80 a6 20 00 	cmp  %i0, 0
   15d84:	40 00 00 6c 	call  15f34 <_times>
   15d88:	90 07 bf 60 	add  %fp, -160, %o0
   15d8c:	80 a2 3f ff 	cmp  %o0, -1
   15d90:	32 80 00 04 	bne,a   15da0 <wait4+0xfc>
   15d94:	d0 07 bf 68 	ld  [ %fp + -152 ], %o0
   15d98:	81 c7 e0 08 	ret 
   15d9c:	91 e8 3f ff 	restore  %g0, -1, %o0
   15da0:	d2 07 bf 78 	ld  [ %fp + -136 ], %o1
   15da4:	b4 22 00 09 	sub  %o0, %o1, %i2
   15da8:	d0 07 bf 6c 	ld  [ %fp + -148 ], %o0
   15dac:	d2 07 bf 7c 	ld  [ %fp + -132 ], %o1
   15db0:	b2 22 00 09 	sub  %o0, %o1, %i1
   15db4:	40 00 02 34 	call  16684 <_sysconf>
   15db8:	90 10 20 03 	mov  3, %o0
   15dbc:	a0 10 00 08 	mov  %o0, %l0
   15dc0:	90 10 00 1a 	mov  %i2, %o0
   15dc4:	40 00 00 fb 	call  161b0 <.div>
   15dc8:	92 10 00 10 	mov  %l0, %o1
   15dcc:	13 00 03 d0 	sethi  %hi(0xf4000), %o1
   15dd0:	a2 10 00 08 	mov  %o0, %l1
   15dd4:	d0 26 e0 00 	st  %o0, [ %i3 ]
   15dd8:	90 02 62 40 	add  %o1, 0x240, %o0
   15ddc:	40 00 00 f5 	call  161b0 <.div>
   15de0:	92 10 00 10 	mov  %l0, %o1
   15de4:	a4 10 00 08 	mov  %o0, %l2
   15de8:	90 10 00 11 	mov  %l1, %o0
   15dec:	7f ff f9 5b 	call  14358 <.mul>
   15df0:	92 10 00 10 	mov  %l0, %o1
   15df4:	90 26 80 08 	sub  %i2, %o0, %o0
   15df8:	7f ff f9 58 	call  14358 <.mul>
   15dfc:	92 10 00 12 	mov  %l2, %o1
   15e00:	d0 26 e0 04 	st  %o0, [ %i3 + 4 ]
   15e04:	90 10 00 19 	mov  %i1, %o0
   15e08:	40 00 00 ea 	call  161b0 <.div>
   15e0c:	92 10 00 10 	mov  %l0, %o1
   15e10:	d0 26 e0 08 	st  %o0, [ %i3 + 8 ]
   15e14:	7f ff f9 51 	call  14358 <.mul>
   15e18:	92 10 00 10 	mov  %l0, %o1
   15e1c:	90 26 40 08 	sub  %i1, %o0, %o0
   15e20:	7f ff f9 4e 	call  14358 <.mul>
   15e24:	92 10 00 12 	mov  %l2, %o1
   15e28:	d0 26 e0 0c 	st  %o0, [ %i3 + 0xc ]
   15e2c:	80 a6 20 00 	cmp  %i0, 0
   15e30:	22 80 00 0a 	be,a   15e58 <wait4+0x1b4>
   15e34:	d0 07 bf 8c 	ld  [ %fp + -116 ], %o0
   15e38:	d0 07 bf 84 	ld  [ %fp + -124 ], %o0
   15e3c:	40 00 00 0f 	call  15e78 <wstat>
   15e40:	d2 07 bf 94 	ld  [ %fp + -108 ], %o1
   15e44:	d0 26 20 00 	st  %o0, [ %i0 ]
   15e48:	d0 07 bf 8c 	ld  [ %fp + -116 ], %o0
   15e4c:	81 c7 e0 08 	ret 
   15e50:	91 e8 00 08 	restore  %g0, %o0, %o0
   15e54:	90 10 3f ff 	mov  -1, %o0
   15e58:	81 c7 e0 08 	ret 
   15e5c:	91 e8 00 08 	restore  %g0, %o0, %o0
   15e60:	00 00 00 40 	unimp  0x40
   15e64:	00 00 00 64 	unimp  0x64
   15e68:	00 00 00 48 	unimp  0x48
   15e6c:	00 00 00 50 	unimp  0x50
   15e70:	00 00 00 50 	unimp  0x50
   15e74:	00 00 00 5c 	unimp  0x5c

0000000000015e78 <wstat>:
   15e78:	82 22 20 01 	sub  %o0, 1, %g1
   15e7c:	19 00 00 57 	sethi  %hi(0x15c00), %o4
   15e80:	80 a0 60 05 	cmp  %g1, 5
   15e84:	18 80 00 10 	bgu  15ec4 <wstat+0x4c>
   15e88:	9a 0a 60 ff 	and  %o1, 0xff, %o5
   15e8c:	83 28 60 02 	sll  %g1, 2, %g1
   15e90:	98 03 22 60 	add  %o4, 0x260, %o4
   15e94:	c2 00 40 0c 	ld  [ %g1 + %o4 ], %g1
   15e98:	81 c0 40 0c 	jmp  %g1 + %o4
   15e9c:	01 00 00 00 	nop 
   15ea0:	10 80 00 09 	b  15ec4 <wstat+0x4c>
   15ea4:	9b 2b 60 08 	sll  %o5, 8, %o5
   15ea8:	10 80 00 07 	b  15ec4 <wstat+0x4c>
   15eac:	9a 13 60 80 	or  %o5, 0x80, %o5
   15eb0:	83 2b 60 08 	sll  %o5, 8, %g1
   15eb4:	10 80 00 04 	b  15ec4 <wstat+0x4c>
   15eb8:	9a 10 60 7f 	or  %g1, 0x7f, %o5
   15ebc:	03 00 00 3f 	sethi  %hi(0xfc00), %g1
   15ec0:	9a 00 63 ff 	add  %g1, 0x3ff, %o5	! ffff <_ld_libc+0xffff>
   15ec4:	81 c3 e0 08 	retl 
   15ec8:	90 10 00 0d 	mov  %o5, %o0

0000000000015ecc <_memset>:
   15ecc:	9a 10 00 08 	mov  %o0, %o5
   15ed0:	80 a2 a0 07 	cmp  %o2, 7
   15ed4:	0a 80 00 12 	bcs  15f1c <_memset+0x50>
   15ed8:	80 8b 60 03 	btst  3, %o5
   15edc:	02 80 00 06 	be  15ef4 <_memset+0x28>
   15ee0:	96 2a a0 03 	andn  %o2, 3, %o3
   15ee4:	94 22 a0 01 	dec  %o2
   15ee8:	d2 2b 40 00 	stb  %o1, [ %o5 ]
   15eec:	10 bf ff fb 	b  15ed8 <_memset+0xc>
   15ef0:	9a 03 60 01 	inc  %o5
   15ef4:	92 0a 60 ff 	and  %o1, 0xff, %o1
   15ef8:	99 2a 60 08 	sll  %o1, 8, %o4
   15efc:	92 12 40 0c 	or  %o1, %o4, %o1
   15f00:	99 2a 60 10 	sll  %o1, 0x10, %o4
   15f04:	92 12 40 0c 	or  %o1, %o4, %o1
   15f08:	d2 23 40 00 	st  %o1, [ %o5 ]
   15f0c:	96 a2 e0 04 	subcc  %o3, 4, %o3
   15f10:	12 bf ff fe 	bne  15f08 <_memset+0x3c>
   15f14:	9a 03 60 04 	add  %o5, 4, %o5
   15f18:	94 0a a0 03 	and  %o2, 3, %o2
   15f1c:	94 a2 a0 01 	deccc  %o2
   15f20:	9a 03 60 01 	inc  %o5
   15f24:	3a bf ff fe 	bcc,a   15f1c <_memset+0x50>
   15f28:	d2 2b 7f ff 	stb  %o1, [ %o5 + -1 ]
   15f2c:	81 c3 e0 08 	retl 
   15f30:	01 00 00 00 	nop 

0000000000015f34 <_times>:
   15f34:	82 10 20 2b 	mov  0x2b, %g1	! 2b <_ld_libc+0x2b>
   15f38:	91 d0 20 08 	ta  8
   15f3c:	1a 80 00 05 	bcc  15f50 <_times+0x1c>
   15f40:	1b 00 00 57 	sethi  %hi(0x15c00), %o5
   15f44:	9a 13 60 0c 	or  %o5, 0xc, %o5	! 15c0c <_cerror>
   15f48:	81 c3 40 00 	jmp  %o5
   15f4c:	01 00 00 00 	nop 
   15f50:	81 c3 e0 08 	retl 
   15f54:	01 00 00 00 	nop 

0000000000015f58 <sleepx>:
   15f58:	81 c3 e0 08 	retl 
   15f5c:	01 00 00 00 	nop 

0000000000015f60 <_usleep>:
   15f60:	9d e3 bf 10 	save  %sp, -240, %sp
   15f64:	b2 90 00 18 	orcc  %g0, %i0, %i1
   15f68:	12 80 00 04 	bne  15f78 <_usleep+0x18>
   15f6c:	01 00 00 00 	nop 
   15f70:	81 c7 e0 08 	ret 
   15f74:	91 e8 20 00 	restore  %g0, 0, %o0
   15f78:	7f ff eb fe 	call  10f70 <_alarm>
   15f7c:	90 10 20 00 	clr  %o0
   15f80:	c0 27 bf f4 	clr  [ %fp + -12 ]
   15f84:	b0 10 00 08 	mov  %o0, %i0
   15f88:	94 07 bf e0 	add  %fp, -32, %o2
   15f8c:	c0 27 bf f0 	clr  [ %fp + -16 ]
   15f90:	90 10 20 00 	clr  %o0
   15f94:	c0 27 bf fc 	clr  [ %fp + -4 ]
   15f98:	c0 27 bf f8 	clr  [ %fp + -8 ]
   15f9c:	7f ff eb fa 	call  10f84 <_setitimer>
   15fa0:	92 07 bf f0 	add  %fp, -16, %o1
   15fa4:	80 90 00 08 	tst  %o0
   15fa8:	16 80 00 04 	bge  15fb8 <_usleep+0x58>
   15fac:	90 10 00 19 	mov  %i1, %o0
   15fb0:	81 c7 e0 08 	ret 
   15fb4:	91 e8 3f ff 	restore  %g0, -1, %o0
   15fb8:	13 10 c6 f7 	sethi  %hi(0x431bdc00), %o1
   15fbc:	a0 02 62 83 	add  %o1, 0x283, %l0	! 431bde83 <_end+0x43195fef>
   15fc0:	40 00 01 2a 	call  16468 <.umul>
   15fc4:	92 10 00 10 	mov  %l0, %o1
   15fc8:	95 32 60 12 	srl  %o1, 0x12, %o2
   15fcc:	d4 27 bf f8 	st  %o2, [ %fp + -8 ]
   15fd0:	90 10 00 19 	mov  %i1, %o0
   15fd4:	40 00 01 25 	call  16468 <.umul>
   15fd8:	92 10 00 10 	mov  %l0, %o1
   15fdc:	95 32 60 12 	srl  %o1, 0x12, %o2
   15fe0:	d2 07 bf e8 	ld  [ %fp + -24 ], %o1
   15fe4:	97 2a a0 06 	sll  %o2, 6, %o3
   15fe8:	96 22 c0 0a 	sub  %o3, %o2, %o3
   15fec:	80 a2 60 00 	cmp  %o1, 0
   15ff0:	99 2a e0 05 	sll  %o3, 5, %o4
   15ff4:	96 23 00 0b 	sub  %o4, %o3, %o3
   15ff8:	97 2a e0 03 	sll  %o3, 3, %o3
   15ffc:	94 02 80 0b 	add  %o2, %o3, %o2
   16000:	95 2a a0 06 	sll  %o2, 6, %o2
   16004:	96 26 40 0a 	sub  %i1, %o2, %o3
   16008:	d6 27 bf fc 	st  %o3, [ %fp + -4 ]
   1600c:	12 80 00 05 	bne  16020 <_usleep+0xc0>
   16010:	d0 07 bf ec 	ld  [ %fp + -20 ], %o0
   16014:	80 a2 20 00 	cmp  %o0, 0
   16018:	02 80 00 27 	be  160b4 <_usleep+0x154>
   1601c:	11 00 00 57 	sethi  %hi(0x15c00), %o0
   16020:	d4 07 bf f8 	ld  [ %fp + -8 ], %o2
   16024:	d0 07 bf ec 	ld  [ %fp + -20 ], %o0
   16028:	80 a2 40 0a 	cmp  %o1, %o2
   1602c:	34 80 00 14 	bg,a   1607c <_usleep+0x11c>
   16030:	94 22 40 0a 	sub  %o1, %o2, %o2
   16034:	32 80 00 06 	bne,a   1604c <_usleep+0xec>
   16038:	d2 27 bf f8 	st  %o1, [ %fp + -8 ]
   1603c:	80 a2 00 0b 	cmp  %o0, %o3
   16040:	14 80 00 0f 	bg  1607c <_usleep+0x11c>
   16044:	94 22 40 0a 	sub  %o1, %o2, %o2
   16048:	d2 27 bf f8 	st  %o1, [ %fp + -8 ]
   1604c:	d0 07 bf ec 	ld  [ %fp + -20 ], %o0
   16050:	c0 27 bf e8 	clr  [ %fp + -24 ]
   16054:	d0 27 bf fc 	st  %o0, [ %fp + -4 ]
   16058:	40 00 01 8b 	call  16684 <_sysconf>
   1605c:	90 10 20 03 	mov  3, %o0
   16060:	92 10 00 08 	mov  %o0, %o1
   16064:	15 00 07 a1 	sethi  %hi(0x1e8400), %o2
   16068:	40 00 00 52 	call  161b0 <.div>
   1606c:	90 02 a0 80 	add  %o2, 0x80, %o0	! 1e8480 <_end+0x1c05ec>
   16070:	d0 27 bf ec 	st  %o0, [ %fp + -20 ]
   16074:	10 80 00 10 	b  160b4 <_usleep+0x154>
   16078:	11 00 00 57 	sethi  %hi(0x15c00), %o0
   1607c:	d4 27 bf e8 	st  %o2, [ %fp + -24 ]
   16080:	d0 07 bf ec 	ld  [ %fp + -20 ], %o0
   16084:	90 22 00 0b 	sub  %o0, %o3, %o0
   16088:	d0 27 bf ec 	st  %o0, [ %fp + -20 ]
   1608c:	92 90 00 08 	orcc  %g0, %o0, %o1
   16090:	16 80 00 09 	bge  160b4 <_usleep+0x154>
   16094:	11 00 00 57 	sethi  %hi(0x15c00), %o0
   16098:	11 00 03 d0 	sethi  %hi(0xf4000), %o0
   1609c:	90 02 22 40 	add  %o0, 0x240, %o0	! f4240 <_end+0xcc3ac>
   160a0:	90 02 40 08 	add  %o1, %o0, %o0
   160a4:	d0 27 bf ec 	st  %o0, [ %fp + -20 ]
   160a8:	90 22 a0 01 	sub  %o2, 1, %o0
   160ac:	d0 27 bf e8 	st  %o0, [ %fp + -24 ]
   160b0:	11 00 00 57 	sethi  %hi(0x15c00), %o0
   160b4:	90 02 23 58 	add  %o0, 0x358, %o0	! 15f58 <sleepx>
   160b8:	d0 27 bf c4 	st  %o0, [ %fp + -60 ]
   160bc:	c0 27 bf c0 	clr  [ %fp + -64 ]
   160c0:	7f ff f1 13 	call  1250c <_sigemptyset>
   160c4:	90 07 bf c8 	add  %fp, -56, %o0
   160c8:	92 07 bf c0 	add  %fp, -64, %o1
   160cc:	94 07 bf a0 	add  %fp, -96, %o2
   160d0:	7f ff ea 72 	call  10a98 <_sigaction>
   160d4:	90 10 20 0e 	mov  0xe, %o0
   160d8:	7f ff f1 0d 	call  1250c <_sigemptyset>
   160dc:	90 07 bf 90 	add  %fp, -112, %o0
   160e0:	90 07 bf 90 	add  %fp, -112, %o0
   160e4:	7f ff f1 10 	call  12524 <_sigaddset>
   160e8:	92 10 20 0e 	mov  0xe, %o1
   160ec:	92 07 bf 90 	add  %fp, -112, %o1
   160f0:	94 07 bf 80 	add  %fp, -128, %o2
   160f4:	7f ff ea 6e 	call  10aac <_sigprocmask>
   160f8:	90 10 20 01 	mov  1, %o0
   160fc:	d0 07 bf 80 	ld  [ %fp + -128 ], %o0
   16100:	d0 27 bf 70 	st  %o0, [ %fp + -144 ]
   16104:	d0 07 bf 84 	ld  [ %fp + -124 ], %o0
   16108:	d0 27 bf 74 	st  %o0, [ %fp + -140 ]
   1610c:	d0 07 bf 88 	ld  [ %fp + -120 ], %o0
   16110:	d0 27 bf 78 	st  %o0, [ %fp + -136 ]
   16114:	d0 07 bf 8c 	ld  [ %fp + -116 ], %o0
   16118:	d0 27 bf 7c 	st  %o0, [ %fp + -132 ]
   1611c:	90 07 bf 70 	add  %fp, -144, %o0
   16120:	7f ff f1 17 	call  1257c <_sigdelset>
   16124:	92 10 20 0e 	mov  0xe, %o1
   16128:	92 07 bf f0 	add  %fp, -16, %o1
   1612c:	90 10 20 00 	clr  %o0
   16130:	7f ff eb 95 	call  10f84 <_setitimer>
   16134:	94 10 20 00 	clr  %o2
   16138:	7f ff fe 5a 	call  15aa0 <_sigsuspend>
   1613c:	90 07 bf 70 	add  %fp, -144, %o0
   16140:	92 07 bf a0 	add  %fp, -96, %o1
   16144:	90 10 20 0e 	mov  0xe, %o0
   16148:	7f ff ea 54 	call  10a98 <_sigaction>
   1614c:	94 10 20 00 	clr  %o2
   16150:	90 07 bf 80 	add  %fp, -128, %o0
   16154:	7f ff f1 21 	call  125d8 <_sigismember>
   16158:	92 10 20 0e 	mov  0xe, %o1
   1615c:	80 90 00 08 	tst  %o0
   16160:	12 80 00 07 	bne  1617c <_usleep+0x21c>
   16164:	92 07 bf e0 	add  %fp, -32, %o1
   16168:	92 07 bf 90 	add  %fp, -112, %o1
   1616c:	90 10 20 02 	mov  2, %o0
   16170:	7f ff ea 4f 	call  10aac <_sigprocmask>
   16174:	94 10 20 00 	clr  %o2
   16178:	92 07 bf e0 	add  %fp, -32, %o1
   1617c:	90 10 20 00 	clr  %o0
   16180:	7f ff eb 81 	call  10f84 <_setitimer>
   16184:	94 10 20 00 	clr  %o2
   16188:	80 a6 20 00 	cmp  %i0, 0
   1618c:	02 80 00 04 	be  1619c <_usleep+0x23c>
   16190:	01 00 00 00 	nop 
   16194:	7f ff eb 77 	call  10f70 <_alarm>
   16198:	90 10 00 18 	mov  %i0, %o0
   1619c:	81 c7 e0 08 	ret 
   161a0:	91 e8 20 00 	restore  %g0, 0, %o0

00000000000161a4 <.udiv>:
   161a4:	9d e3 bf a0 	save  %sp, -96, %sp
   161a8:	10 80 00 0c 	b  161d8 <.div+0x28>
   161ac:	a2 10 20 00 	clr  %l1

00000000000161b0 <.div>:
   161b0:	9d e3 bf a0 	save  %sp, -96, %sp
   161b4:	80 96 40 18 	orcc  %i1, %i0, %g0
   161b8:	16 80 00 08 	bge  161d8 <.div+0x28>
   161bc:	a2 1e 40 18 	xor  %i1, %i0, %l1
   161c0:	80 90 00 19 	tst  %i1
   161c4:	16 80 00 04 	bge  161d4 <.div+0x24>
   161c8:	80 90 00 18 	tst  %i0
   161cc:	16 80 00 03 	bge  161d8 <.div+0x28>
   161d0:	b2 20 00 19 	neg  %i1
   161d4:	b0 20 00 18 	neg  %i0
   161d8:	ba 96 40 00 	orcc  %i1, %g0, %i5
   161dc:	12 80 00 04 	bne  161ec <.div+0x3c>
   161e0:	b6 10 00 18 	mov  %i0, %i3
   161e4:	10 80 00 9d 	b  16458 <.div+0x2a8>
   161e8:	01 00 00 00 	nop 
   161ec:	80 a6 c0 1d 	cmp  %i3, %i5
   161f0:	0a 80 00 94 	bcs  16440 <.div+0x290>
   161f4:	b4 10 20 00 	clr  %i2
   161f8:	25 02 00 00 	sethi  %hi(0x8000000), %l2
   161fc:	80 a6 c0 12 	cmp  %i3, %l2
   16200:	0a 80 00 27 	bcs  1629c <.div+0xec>
   16204:	b8 10 20 00 	clr  %i4
   16208:	80 a7 40 12 	cmp  %i5, %l2
   1620c:	1a 80 00 0d 	bcc  16240 <.div+0x90>
   16210:	a6 10 20 01 	mov  1, %l3
   16214:	bb 2f 60 04 	sll  %i5, 4, %i5
   16218:	10 bf ff fc 	b  16208 <.div+0x58>
   1621c:	b8 07 20 01 	inc  %i4
   16220:	ba 87 40 1d 	addcc  %i5, %i5, %i5
   16224:	1a 80 00 07 	bcc  16240 <.div+0x90>
   16228:	a6 04 e0 01 	inc  %l3
   1622c:	a5 2c a0 04 	sll  %l2, 4, %l2
   16230:	bb 37 60 01 	srl  %i5, 1, %i5
   16234:	ba 07 40 12 	add  %i5, %l2, %i5
   16238:	10 80 00 07 	b  16254 <.div+0xa4>
   1623c:	a6 24 e0 01 	dec  %l3
   16240:	80 a7 40 1b 	cmp  %i5, %i3
   16244:	0a bf ff f7 	bcs  16220 <.div+0x70>
   16248:	01 00 00 00 	nop 
   1624c:	02 80 00 02 	be  16254 <.div+0xa4>
   16250:	01 00 00 00 	nop 
   16254:	a6 a4 e0 01 	deccc  %l3
   16258:	06 80 00 75 	bl  1642c <.div+0x27c>
   1625c:	01 00 00 00 	nop 
   16260:	b6 26 c0 1d 	sub  %i3, %i5, %i3
   16264:	b4 10 20 01 	mov  1, %i2
   16268:	30 80 00 09 	b,a   1628c <.div+0xdc>
   1626c:	b5 2e a0 01 	sll  %i2, 1, %i2
   16270:	06 80 00 05 	bl  16284 <.div+0xd4>
   16274:	bb 37 60 01 	srl  %i5, 1, %i5
   16278:	b6 26 c0 1d 	sub  %i3, %i5, %i3
   1627c:	10 80 00 04 	b  1628c <.div+0xdc>
   16280:	b4 06 a0 01 	inc  %i2
   16284:	b6 06 c0 1d 	add  %i3, %i5, %i3
   16288:	b4 26 a0 01 	dec  %i2
   1628c:	a6 a4 e0 01 	deccc  %l3
   16290:	16 bf ff f7 	bge  1626c <.div+0xbc>
   16294:	80 90 00 1b 	tst  %i3
   16298:	30 80 00 65 	b,a   1642c <.div+0x27c>
   1629c:	bb 2f 60 04 	sll  %i5, 4, %i5
   162a0:	80 a7 40 1b 	cmp  %i5, %i3
   162a4:	08 bf ff fe 	bleu  1629c <.div+0xec>
   162a8:	b8 87 20 01 	inccc  %i4
   162ac:	02 80 00 65 	be  16440 <.div+0x290>
   162b0:	b8 27 20 01 	dec  %i4
   162b4:	80 90 00 1b 	tst  %i3
   162b8:	b5 2e a0 04 	sll  %i2, 4, %i2
   162bc:	06 80 00 2f 	bl  16378 <.div+0x1c8>
   162c0:	bb 37 60 01 	srl  %i5, 1, %i5
   162c4:	b6 a6 c0 1d 	subcc  %i3, %i5, %i3
   162c8:	06 80 00 17 	bl  16324 <.div+0x174>
   162cc:	bb 37 60 01 	srl  %i5, 1, %i5
   162d0:	b6 a6 c0 1d 	subcc  %i3, %i5, %i3
   162d4:	06 80 00 0b 	bl  16300 <.div+0x150>
   162d8:	bb 37 60 01 	srl  %i5, 1, %i5
   162dc:	b6 a6 c0 1d 	subcc  %i3, %i5, %i3
   162e0:	06 80 00 05 	bl  162f4 <.div+0x144>
   162e4:	bb 37 60 01 	srl  %i5, 1, %i5
   162e8:	b6 a6 c0 1d 	subcc  %i3, %i5, %i3
   162ec:	10 80 00 50 	b  1642c <.div+0x27c>
   162f0:	b4 06 a0 0f 	add  %i2, 0xf, %i2
   162f4:	b6 86 c0 1d 	addcc  %i3, %i5, %i3
   162f8:	10 80 00 4d 	b  1642c <.div+0x27c>
   162fc:	b4 06 a0 0d 	add  %i2, 0xd, %i2
   16300:	b6 86 c0 1d 	addcc  %i3, %i5, %i3
   16304:	06 80 00 05 	bl  16318 <.div+0x168>
   16308:	bb 37 60 01 	srl  %i5, 1, %i5
   1630c:	b6 a6 c0 1d 	subcc  %i3, %i5, %i3
   16310:	10 80 00 47 	b  1642c <.div+0x27c>
   16314:	b4 06 a0 0b 	add  %i2, 0xb, %i2
   16318:	b6 86 c0 1d 	addcc  %i3, %i5, %i3
   1631c:	10 80 00 44 	b  1642c <.div+0x27c>
   16320:	b4 06 a0 09 	add  %i2, 9, %i2
   16324:	b6 86 c0 1d 	addcc  %i3, %i5, %i3
   16328:	06 80 00 0b 	bl  16354 <.div+0x1a4>
   1632c:	bb 37 60 01 	srl  %i5, 1, %i5
   16330:	b6 a6 c0 1d 	subcc  %i3, %i5, %i3
   16334:	06 80 00 05 	bl  16348 <.div+0x198>
   16338:	bb 37 60 01 	srl  %i5, 1, %i5
   1633c:	b6 a6 c0 1d 	subcc  %i3, %i5, %i3
   16340:	10 80 00 3b 	b  1642c <.div+0x27c>
   16344:	b4 06 a0 07 	add  %i2, 7, %i2
   16348:	b6 86 c0 1d 	addcc  %i3, %i5, %i3
   1634c:	10 80 00 38 	b  1642c <.div+0x27c>
   16350:	b4 06 a0 05 	add  %i2, 5, %i2
   16354:	b6 86 c0 1d 	addcc  %i3, %i5, %i3
   16358:	06 80 00 05 	bl  1636c <.div+0x1bc>
   1635c:	bb 37 60 01 	srl  %i5, 1, %i5
   16360:	b6 a6 c0 1d 	subcc  %i3, %i5, %i3
   16364:	10 80 00 32 	b  1642c <.div+0x27c>
   16368:	b4 06 a0 03 	add  %i2, 3, %i2
   1636c:	b6 86 c0 1d 	addcc  %i3, %i5, %i3
   16370:	10 80 00 2f 	b  1642c <.div+0x27c>
   16374:	b4 06 a0 01 	inc  %i2
   16378:	b6 86 c0 1d 	addcc  %i3, %i5, %i3
   1637c:	06 80 00 17 	bl  163d8 <.div+0x228>
   16380:	bb 37 60 01 	srl  %i5, 1, %i5
   16384:	b6 a6 c0 1d 	subcc  %i3, %i5, %i3
   16388:	06 80 00 0b 	bl  163b4 <.div+0x204>
   1638c:	bb 37 60 01 	srl  %i5, 1, %i5
   16390:	b6 a6 c0 1d 	subcc  %i3, %i5, %i3
   16394:	06 80 00 05 	bl  163a8 <.div+0x1f8>
   16398:	bb 37 60 01 	srl  %i5, 1, %i5
   1639c:	b6 a6 c0 1d 	subcc  %i3, %i5, %i3
   163a0:	10 80 00 23 	b  1642c <.div+0x27c>
   163a4:	b4 06 bf ff 	add  %i2, -1, %i2
   163a8:	b6 86 c0 1d 	addcc  %i3, %i5, %i3
   163ac:	10 80 00 20 	b  1642c <.div+0x27c>
   163b0:	b4 06 bf fd 	add  %i2, -3, %i2
   163b4:	b6 86 c0 1d 	addcc  %i3, %i5, %i3
   163b8:	06 80 00 05 	bl  163cc <.div+0x21c>
   163bc:	bb 37 60 01 	srl  %i5, 1, %i5
   163c0:	b6 a6 c0 1d 	subcc  %i3, %i5, %i3
   163c4:	10 80 00 1a 	b  1642c <.div+0x27c>
   163c8:	b4 06 bf fb 	add  %i2, -5, %i2
   163cc:	b6 86 c0 1d 	addcc  %i3, %i5, %i3
   163d0:	10 80 00 17 	b  1642c <.div+0x27c>
   163d4:	b4 06 bf f9 	add  %i2, -7, %i2
   163d8:	b6 86 c0 1d 	addcc  %i3, %i5, %i3
   163dc:	06 80 00 0b 	bl  16408 <.div+0x258>
   163e0:	bb 37 60 01 	srl  %i5, 1, %i5
   163e4:	b6 a6 c0 1d 	subcc  %i3, %i5, %i3
   163e8:	06 80 00 05 	bl  163fc <.div+0x24c>
   163ec:	bb 37 60 01 	srl  %i5, 1, %i5
   163f0:	b6 a6 c0 1d 	subcc  %i3, %i5, %i3
   163f4:	10 80 00 0e 	b  1642c <.div+0x27c>
   163f8:	b4 06 bf f7 	add  %i2, -9, %i2
   163fc:	b6 86 c0 1d 	addcc  %i3, %i5, %i3
   16400:	10 80 00 0b 	b  1642c <.div+0x27c>
   16404:	b4 06 bf f5 	add  %i2, -11, %i2
   16408:	b6 86 c0 1d 	addcc  %i3, %i5, %i3
   1640c:	06 80 00 05 	bl  16420 <.div+0x270>
   16410:	bb 37 60 01 	srl  %i5, 1, %i5
   16414:	b6 a6 c0 1d 	subcc  %i3, %i5, %i3
   16418:	10 80 00 05 	b  1642c <.div+0x27c>
   1641c:	b4 06 bf f3 	add  %i2, -13, %i2
   16420:	b6 86 c0 1d 	addcc  %i3, %i5, %i3
   16424:	10 80 00 02 	b  1642c <.div+0x27c>
   16428:	b4 06 bf f1 	add  %i2, -15, %i2
   1642c:	b8 a7 20 01 	deccc  %i4
   16430:	16 bf ff a2 	bge  162b8 <.div+0x108>
   16434:	80 90 00 1b 	tst  %i3
   16438:	26 80 00 02 	bl,a   16440 <.div+0x290>
   1643c:	b4 26 a0 01 	dec  %i2
   16440:	80 90 00 11 	tst  %l1
   16444:	26 80 00 02 	bl,a   1644c <.div+0x29c>
   16448:	b4 20 00 1a 	neg  %i2
   1644c:	b0 10 00 1a 	mov  %i2, %i0
   16450:	81 c7 e0 08 	ret 
   16454:	81 e8 00 00 	restore 
   16458:	91 d0 20 02 	ta  2
   1645c:	b0 10 20 00 	clr  %i0
   16460:	81 c7 e0 08 	ret 
   16464:	81 e8 00 00 	restore 

0000000000016468 <.umul>:
   16468:	81 82 00 00 	mov  %o0, %y
   1646c:	98 aa 20 0f 	andncc  %o0, 0xf, %o4
   16470:	02 80 00 34 	be  16540 <.umul+0xd8>
   16474:	1b 3f ff c0 	sethi  %hi(0xffff0000), %o5
   16478:	98 aa 20 ff 	andncc  %o0, 0xff, %o4
   1647c:	22 80 00 40 	be,a   1657c <.umul+0x114>
   16480:	99 23 00 09 	mulscc  %o4, %o1, %o4
   16484:	98 aa 2f ff 	andncc  %o0, 0xfff, %o4
   16488:	22 80 00 4f 	be,a   165c4 <.umul+0x15c>
   1648c:	99 23 00 09 	mulscc  %o4, %o1, %o4
   16490:	98 8a 00 0d 	andcc  %o0, %o5, %o4
   16494:	22 80 00 62 	be,a   1661c <.umul+0x1b4>
   16498:	99 23 00 09 	mulscc  %o4, %o1, %o4
   1649c:	98 88 00 00 	andcc  %g0, %g0, %o4
   164a0:	99 23 00 09 	mulscc  %o4, %o1, %o4
   164a4:	99 23 00 09 	mulscc  %o4, %o1, %o4
   164a8:	99 23 00 09 	mulscc  %o4, %o1, %o4
   164ac:	99 23 00 09 	mulscc  %o4, %o1, %o4
   164b0:	99 23 00 09 	mulscc  %o4, %o1, %o4
   164b4:	99 23 00 09 	mulscc  %o4, %o1, %o4
   164b8:	99 23 00 09 	mulscc  %o4, %o1, %o4
   164bc:	99 23 00 09 	mulscc  %o4, %o1, %o4
   164c0:	99 23 00 09 	mulscc  %o4, %o1, %o4
   164c4:	99 23 00 09 	mulscc  %o4, %o1, %o4
   164c8:	99 23 00 09 	mulscc  %o4, %o1, %o4
   164cc:	99 23 00 09 	mulscc  %o4, %o1, %o4
   164d0:	99 23 00 09 	mulscc  %o4, %o1, %o4
   164d4:	99 23 00 09 	mulscc  %o4, %o1, %o4
   164d8:	99 23 00 09 	mulscc  %o4, %o1, %o4
   164dc:	99 23 00 09 	mulscc  %o4, %o1, %o4
   164e0:	99 23 00 09 	mulscc  %o4, %o1, %o4
   164e4:	99 23 00 09 	mulscc  %o4, %o1, %o4
   164e8:	99 23 00 09 	mulscc  %o4, %o1, %o4
   164ec:	99 23 00 09 	mulscc  %o4, %o1, %o4
   164f0:	99 23 00 09 	mulscc  %o4, %o1, %o4
   164f4:	99 23 00 09 	mulscc  %o4, %o1, %o4
   164f8:	99 23 00 09 	mulscc  %o4, %o1, %o4
   164fc:	99 23 00 09 	mulscc  %o4, %o1, %o4
   16500:	99 23 00 09 	mulscc  %o4, %o1, %o4
   16504:	99 23 00 09 	mulscc  %o4, %o1, %o4
   16508:	99 23 00 09 	mulscc  %o4, %o1, %o4
   1650c:	99 23 00 09 	mulscc  %o4, %o1, %o4
   16510:	99 23 00 09 	mulscc  %o4, %o1, %o4
   16514:	99 23 00 09 	mulscc  %o4, %o1, %o4
   16518:	99 23 00 09 	mulscc  %o4, %o1, %o4
   1651c:	99 23 00 09 	mulscc  %o4, %o1, %o4
   16520:	99 23 00 00 	mulscc  %o4, %g0, %o4
   16524:	80 90 00 09 	tst  %o1
   16528:	16 80 00 03 	bge  16534 <.umul+0xcc>
   1652c:	01 00 00 00 	nop 
   16530:	98 03 00 08 	add  %o4, %o0, %o4
   16534:	91 40 00 00 	rd  %y, %o0
   16538:	81 c3 e0 08 	retl 
   1653c:	92 83 00 00 	addcc  %o4, %g0, %o1
   16540:	99 23 00 09 	mulscc  %o4, %o1, %o4
   16544:	99 23 00 09 	mulscc  %o4, %o1, %o4
   16548:	99 23 00 09 	mulscc  %o4, %o1, %o4
   1654c:	99 23 00 09 	mulscc  %o4, %o1, %o4
   16550:	99 23 00 00 	mulscc  %o4, %g0, %o4
   16554:	9b 40 00 00 	rd  %y, %o5
   16558:	80 90 00 09 	tst  %o1
   1655c:	16 80 00 03 	bge  16568 <.umul+0x100>
   16560:	93 3b 20 1c 	sra  %o4, 0x1c, %o1
   16564:	92 02 40 08 	add  %o1, %o0, %o1
   16568:	91 2b 20 04 	sll  %o4, 4, %o0
   1656c:	9b 33 60 1c 	srl  %o5, 0x1c, %o5
   16570:	90 13 40 08 	or  %o5, %o0, %o0
   16574:	81 c3 e0 08 	retl 
   16578:	80 90 00 09 	tst  %o1
   1657c:	99 23 00 09 	mulscc  %o4, %o1, %o4
   16580:	99 23 00 09 	mulscc  %o4, %o1, %o4
   16584:	99 23 00 09 	mulscc  %o4, %o1, %o4
   16588:	99 23 00 09 	mulscc  %o4, %o1, %o4
   1658c:	99 23 00 09 	mulscc  %o4, %o1, %o4
   16590:	99 23 00 09 	mulscc  %o4, %o1, %o4
   16594:	99 23 00 09 	mulscc  %o4, %o1, %o4
   16598:	99 23 00 00 	mulscc  %o4, %g0, %o4
   1659c:	9b 40 00 00 	rd  %y, %o5
   165a0:	80 90 00 09 	tst  %o1
   165a4:	16 80 00 03 	bge  165b0 <.umul+0x148>
   165a8:	93 3b 20 18 	sra  %o4, 0x18, %o1
   165ac:	92 02 40 08 	add  %o1, %o0, %o1
   165b0:	91 2b 20 08 	sll  %o4, 8, %o0
   165b4:	9b 33 60 18 	srl  %o5, 0x18, %o5
   165b8:	90 13 40 08 	or  %o5, %o0, %o0
   165bc:	81 c3 e0 08 	retl 
   165c0:	80 90 00 09 	tst  %o1
   165c4:	99 23 00 09 	mulscc  %o4, %o1, %o4
   165c8:	99 23 00 09 	mulscc  %o4, %o1, %o4
   165cc:	99 23 00 09 	mulscc  %o4, %o1, %o4
   165d0:	99 23 00 09 	mulscc  %o4, %o1, %o4
   165d4:	99 23 00 09 	mulscc  %o4, %o1, %o4
   165d8:	99 23 00 09 	mulscc  %o4, %o1, %o4
   165dc:	99 23 00 09 	mulscc  %o4, %o1, %o4
   165e0:	99 23 00 09 	mulscc  %o4, %o1, %o4
   165e4:	99 23 00 09 	mulscc  %o4, %o1, %o4
   165e8:	99 23 00 09 	mulscc  %o4, %o1, %o4
   165ec:	99 23 00 09 	mulscc  %o4, %o1, %o4
   165f0:	99 23 00 00 	mulscc  %o4, %g0, %o4
   165f4:	9b 40 00 00 	rd  %y, %o5
   165f8:	80 90 00 09 	tst  %o1
   165fc:	16 80 00 03 	bge  16608 <.umul+0x1a0>
   16600:	93 3b 20 14 	sra  %o4, 0x14, %o1
   16604:	92 02 40 08 	add  %o1, %o0, %o1
   16608:	91 2b 20 0c 	sll  %o4, 0xc, %o0
   1660c:	9b 33 60 14 	srl  %o5, 0x14, %o5
   16610:	90 13 40 08 	or  %o5, %o0, %o0
   16614:	81 c3 e0 08 	retl 
   16618:	80 90 00 09 	tst  %o1
   1661c:	99 23 00 09 	mulscc  %o4, %o1, %o4
   16620:	99 23 00 09 	mulscc  %o4, %o1, %o4
   16624:	99 23 00 09 	mulscc  %o4, %o1, %o4
   16628:	99 23 00 09 	mulscc  %o4, %o1, %o4
   1662c:	99 23 00 09 	mulscc  %o4, %o1, %o4
   16630:	99 23 00 09 	mulscc  %o4, %o1, %o4
   16634:	99 23 00 09 	mulscc  %o4, %o1, %o4
   16638:	99 23 00 09 	mulscc  %o4, %o1, %o4
   1663c:	99 23 00 09 	mulscc  %o4, %o1, %o4
   16640:	99 23 00 09 	mulscc  %o4, %o1, %o4
   16644:	99 23 00 09 	mulscc  %o4, %o1, %o4
   16648:	99 23 00 09 	mulscc  %o4, %o1, %o4
   1664c:	99 23 00 09 	mulscc  %o4, %o1, %o4
   16650:	99 23 00 09 	mulscc  %o4, %o1, %o4
   16654:	99 23 00 09 	mulscc  %o4, %o1, %o4
   16658:	99 23 00 00 	mulscc  %o4, %g0, %o4
   1665c:	9b 40 00 00 	rd  %y, %o5
   16660:	80 90 00 09 	tst  %o1
   16664:	16 80 00 03 	bge  16670 <.umul+0x208>
   16668:	93 3b 20 10 	sra  %o4, 0x10, %o1
   1666c:	92 02 40 08 	add  %o1, %o0, %o1
   16670:	91 2b 20 10 	sll  %o4, 0x10, %o0
   16674:	9b 33 60 10 	srl  %o5, 0x10, %o5
   16678:	90 13 40 08 	or  %o5, %o0, %o0
   1667c:	81 c3 e0 08 	retl 
   16680:	80 90 00 09 	tst  %o1

0000000000016684 <_sysconf>:
   16684:	9d e3 bf a0 	save  %sp, -96, %sp
   16688:	90 10 00 18 	mov  %i0, %o0
   1668c:	80 a6 20 39 	cmp  %i0, 0x39
   16690:	16 80 00 e0 	bge  16a10 <_sysconf+0x38c>
   16694:	80 a2 20 1e 	cmp  %o0, 0x1e
   16698:	16 80 00 73 	bge  16864 <_sysconf+0x1e0>
   1669c:	80 a2 20 10 	cmp  %o0, 0x10
   166a0:	16 80 00 39 	bge  16784 <_sysconf+0x100>
   166a4:	80 a2 20 08 	cmp  %o0, 8
   166a8:	16 80 00 1c 	bge  16718 <_sysconf+0x94>
   166ac:	80 a2 20 05 	cmp  %o0, 5
   166b0:	16 80 00 11 	bge  166f4 <_sysconf+0x70>
   166b4:	80 a2 20 03 	cmp  %o0, 3
   166b8:	16 80 00 08 	bge  166d8 <_sysconf+0x54>
   166bc:	80 a2 20 01 	cmp  %o0, 1
   166c0:	02 80 01 a2 	be  16d48 <_sysconf+0x6c4>
   166c4:	80 a2 20 02 	cmp  %o0, 2
   166c8:	02 80 01 b3 	be  16d94 <_sysconf+0x710>
   166cc:	01 00 00 00 	nop 
   166d0:	10 80 01 98 	b  16d30 <_sysconf+0x6ac>
   166d4:	01 00 00 00 	nop 
   166d8:	80 a6 20 03 	cmp  %i0, 3
   166dc:	02 80 01 9f 	be  16d58 <_sysconf+0x6d4>
   166e0:	80 a2 20 04 	cmp  %o0, 4
   166e4:	02 80 01 ae 	be  16d9c <_sysconf+0x718>
   166e8:	01 00 00 00 	nop 
   166ec:	10 80 01 91 	b  16d30 <_sysconf+0x6ac>
   166f0:	01 00 00 00 	nop 
   166f4:	80 a6 20 05 	cmp  %i0, 5
   166f8:	02 80 01 ab 	be  16da4 <_sysconf+0x720>
   166fc:	80 a2 20 06 	cmp  %o0, 6
   16700:	02 80 01 a1 	be  16d84 <_sysconf+0x700>
   16704:	80 a2 20 07 	cmp  %o0, 7
   16708:	02 80 01 a1 	be  16d8c <_sysconf+0x708>
   1670c:	01 00 00 00 	nop 
   16710:	10 80 01 88 	b  16d30 <_sysconf+0x6ac>
   16714:	01 00 00 00 	nop 
   16718:	80 a6 20 0c 	cmp  %i0, 0xc
   1671c:	16 80 00 11 	bge  16760 <_sysconf+0xdc>
   16720:	80 a2 20 0a 	cmp  %o0, 0xa
   16724:	16 80 00 08 	bge  16744 <_sysconf+0xc0>
   16728:	80 a2 20 08 	cmp  %o0, 8
   1672c:	02 80 01 a0 	be  16dac <_sysconf+0x728>
   16730:	80 a2 20 09 	cmp  %o0, 9
   16734:	02 80 01 b3 	be  16e00 <_sysconf+0x77c>
   16738:	01 00 00 00 	nop 
   1673c:	10 80 01 7d 	b  16d30 <_sysconf+0x6ac>
   16740:	01 00 00 00 	nop 
   16744:	80 a6 20 0a 	cmp  %i0, 0xa
   16748:	02 80 01 b0 	be  16e08 <_sysconf+0x784>
   1674c:	80 a2 20 0b 	cmp  %o0, 0xb
   16750:	02 80 01 99 	be  16db4 <_sysconf+0x730>
   16754:	31 00 00 9e 	sethi  %hi(0x27800), %i0
   16758:	10 80 01 76 	b  16d30 <_sysconf+0x6ac>
   1675c:	01 00 00 00 	nop 
   16760:	80 a6 20 0c 	cmp  %i0, 0xc
   16764:	02 80 01 9e 	be  16ddc <_sysconf+0x758>
   16768:	80 a2 20 0e 	cmp  %o0, 0xe
   1676c:	02 80 01 ad 	be  16e20 <_sysconf+0x79c>
   16770:	80 a2 20 0f 	cmp  %o0, 0xf
   16774:	02 80 01 ad 	be  16e28 <_sysconf+0x7a4>
   16778:	01 00 00 00 	nop 
   1677c:	10 80 01 6d 	b  16d30 <_sysconf+0x6ac>
   16780:	01 00 00 00 	nop 
   16784:	80 a6 20 17 	cmp  %i0, 0x17
   16788:	16 80 00 1c 	bge  167f8 <_sysconf+0x174>
   1678c:	80 a2 20 14 	cmp  %o0, 0x14
   16790:	16 80 00 11 	bge  167d4 <_sysconf+0x150>
   16794:	80 a2 20 12 	cmp  %o0, 0x12
   16798:	16 80 00 08 	bge  167b8 <_sysconf+0x134>
   1679c:	80 a2 20 10 	cmp  %o0, 0x10
   167a0:	02 80 01 9c 	be  16e10 <_sysconf+0x78c>
   167a4:	80 a2 20 11 	cmp  %o0, 0x11
   167a8:	02 80 01 9c 	be  16e18 <_sysconf+0x794>
   167ac:	01 00 00 00 	nop 
   167b0:	10 80 01 60 	b  16d30 <_sysconf+0x6ac>
   167b4:	01 00 00 00 	nop 
   167b8:	80 a6 20 12 	cmp  %i0, 0x12
   167bc:	02 80 01 c3 	be  16ec8 <_sysconf+0x844>
   167c0:	80 a2 20 13 	cmp  %o0, 0x13
   167c4:	02 80 01 c3 	be  16ed0 <_sysconf+0x84c>
   167c8:	01 00 00 00 	nop 
   167cc:	10 80 01 59 	b  16d30 <_sysconf+0x6ac>
   167d0:	01 00 00 00 	nop 
   167d4:	80 a6 20 14 	cmp  %i0, 0x14
   167d8:	02 80 01 c0 	be  16ed8 <_sysconf+0x854>
   167dc:	80 a2 20 15 	cmp  %o0, 0x15
   167e0:	02 80 01 9e 	be  16e58 <_sysconf+0x7d4>
   167e4:	80 a2 20 16 	cmp  %o0, 0x16
   167e8:	02 80 01 be 	be  16ee0 <_sysconf+0x85c>
   167ec:	01 00 00 00 	nop 
   167f0:	10 80 01 50 	b  16d30 <_sysconf+0x6ac>
   167f4:	01 00 00 00 	nop 
   167f8:	80 a6 20 1b 	cmp  %i0, 0x1b
   167fc:	16 80 00 11 	bge  16840 <_sysconf+0x1bc>
   16800:	80 a2 20 19 	cmp  %o0, 0x19
   16804:	16 80 00 08 	bge  16824 <_sysconf+0x1a0>
   16808:	80 a2 20 17 	cmp  %o0, 0x17
   1680c:	02 80 01 95 	be  16e60 <_sysconf+0x7dc>
   16810:	80 a2 20 18 	cmp  %o0, 0x18
   16814:	02 80 01 95 	be  16e68 <_sysconf+0x7e4>
   16818:	01 00 00 00 	nop 
   1681c:	10 80 01 45 	b  16d30 <_sysconf+0x6ac>
   16820:	01 00 00 00 	nop 
   16824:	80 a6 20 19 	cmp  %i0, 0x19
   16828:	02 80 01 92 	be  16e70 <_sysconf+0x7ec>
   1682c:	80 a2 20 1a 	cmp  %o0, 0x1a
   16830:	02 80 01 92 	be  16e78 <_sysconf+0x7f4>
   16834:	01 00 00 00 	nop 
   16838:	10 80 01 3e 	b  16d30 <_sysconf+0x6ac>
   1683c:	01 00 00 00 	nop 
   16840:	80 a6 20 1b 	cmp  %i0, 0x1b
   16844:	02 80 01 8f 	be  16e80 <_sysconf+0x7fc>
   16848:	80 a2 20 1c 	cmp  %o0, 0x1c
   1684c:	02 80 01 8f 	be  16e88 <_sysconf+0x804>
   16850:	80 a2 20 1d 	cmp  %o0, 0x1d
   16854:	02 80 01 a5 	be  16ee8 <_sysconf+0x864>
   16858:	01 00 00 00 	nop 
   1685c:	10 80 01 35 	b  16d30 <_sysconf+0x6ac>
   16860:	01 00 00 00 	nop 
   16864:	80 a6 20 2c 	cmp  %i0, 0x2c
   16868:	16 80 00 39 	bge  1694c <_sysconf+0x2c8>
   1686c:	80 a2 20 25 	cmp  %o0, 0x25
   16870:	16 80 00 1c 	bge  168e0 <_sysconf+0x25c>
   16874:	80 a2 20 22 	cmp  %o0, 0x22
   16878:	16 80 00 11 	bge  168bc <_sysconf+0x238>
   1687c:	80 a2 20 20 	cmp  %o0, 0x20
   16880:	16 80 00 08 	bge  168a0 <_sysconf+0x21c>
   16884:	80 a2 20 1e 	cmp  %o0, 0x1e
   16888:	02 80 01 9a 	be  16ef0 <_sysconf+0x86c>
   1688c:	80 a2 20 1f 	cmp  %o0, 0x1f
   16890:	02 80 01 80 	be  16e90 <_sysconf+0x80c>
   16894:	01 00 00 00 	nop 
   16898:	10 80 01 26 	b  16d30 <_sysconf+0x6ac>
   1689c:	01 00 00 00 	nop 
   168a0:	80 a6 20 20 	cmp  %i0, 0x20
   168a4:	02 80 01 7d 	be  16e98 <_sysconf+0x814>
   168a8:	80 a2 20 21 	cmp  %o0, 0x21
   168ac:	02 80 01 7d 	be  16ea0 <_sysconf+0x81c>
   168b0:	01 00 00 00 	nop 
   168b4:	10 80 01 1f 	b  16d30 <_sysconf+0x6ac>
   168b8:	01 00 00 00 	nop 
   168bc:	80 a6 20 22 	cmp  %i0, 0x22
   168c0:	02 80 01 8e 	be  16ef8 <_sysconf+0x874>
   168c4:	80 a2 20 23 	cmp  %o0, 0x23
   168c8:	02 80 01 78 	be  16ea8 <_sysconf+0x824>
   168cc:	80 a2 20 24 	cmp  %o0, 0x24
   168d0:	02 80 01 8c 	be  16f00 <_sysconf+0x87c>
   168d4:	01 00 00 00 	nop 
   168d8:	10 80 01 16 	b  16d30 <_sysconf+0x6ac>
   168dc:	01 00 00 00 	nop 
   168e0:	80 a6 20 29 	cmp  %i0, 0x29
   168e4:	16 80 00 11 	bge  16928 <_sysconf+0x2a4>
   168e8:	80 a2 20 27 	cmp  %o0, 0x27
   168ec:	16 80 00 08 	bge  1690c <_sysconf+0x288>
   168f0:	80 a2 20 25 	cmp  %o0, 0x25
   168f4:	02 80 01 85 	be  16f08 <_sysconf+0x884>
   168f8:	80 a2 20 26 	cmp  %o0, 0x26
   168fc:	02 80 01 6d 	be  16eb0 <_sysconf+0x82c>
   16900:	01 00 00 00 	nop 
   16904:	10 80 01 0b 	b  16d30 <_sysconf+0x6ac>
   16908:	01 00 00 00 	nop 
   1690c:	80 a6 20 27 	cmp  %i0, 0x27
   16910:	02 80 01 80 	be  16f10 <_sysconf+0x88c>
   16914:	80 a2 20 28 	cmp  %o0, 0x28
   16918:	02 80 01 82 	be  16f20 <_sysconf+0x89c>
   1691c:	01 00 00 00 	nop 
   16920:	10 80 01 04 	b  16d30 <_sysconf+0x6ac>
   16924:	01 00 00 00 	nop 
   16928:	80 a6 20 29 	cmp  %i0, 0x29
   1692c:	02 80 01 7b 	be  16f18 <_sysconf+0x894>
   16930:	80 a2 20 2a 	cmp  %o0, 0x2a
   16934:	02 80 01 61 	be  16eb8 <_sysconf+0x834>
   16938:	80 a2 20 2b 	cmp  %o0, 0x2b
   1693c:	02 80 01 61 	be  16ec0 <_sysconf+0x83c>
   16940:	01 00 00 00 	nop 
   16944:	10 80 00 fb 	b  16d30 <_sysconf+0x6ac>
   16948:	01 00 00 00 	nop 
   1694c:	80 a6 20 33 	cmp  %i0, 0x33
   16950:	16 80 00 1c 	bge  169c0 <_sysconf+0x33c>
   16954:	80 a2 20 30 	cmp  %o0, 0x30
   16958:	16 80 00 11 	bge  1699c <_sysconf+0x318>
   1695c:	80 a2 20 2e 	cmp  %o0, 0x2e
   16960:	16 80 00 08 	bge  16980 <_sysconf+0x2fc>
   16964:	80 a2 20 2c 	cmp  %o0, 0x2c
   16968:	02 80 01 70 	be  16f28 <_sysconf+0x8a4>
   1696c:	80 a2 20 2d 	cmp  %o0, 0x2d
   16970:	02 80 01 74 	be  16f40 <_sysconf+0x8bc>
   16974:	01 00 00 00 	nop 
   16978:	10 80 00 ee 	b  16d30 <_sysconf+0x6ac>
   1697c:	01 00 00 00 	nop 
   16980:	80 a6 20 2e 	cmp  %i0, 0x2e
   16984:	02 80 01 73 	be  16f50 <_sysconf+0x8cc>
   16988:	80 a2 20 2f 	cmp  %o0, 0x2f
   1698c:	02 80 01 73 	be  16f58 <_sysconf+0x8d4>
   16990:	11 00 00 c2 	sethi  %hi(0x30800), %o0
   16994:	10 80 00 e7 	b  16d30 <_sysconf+0x6ac>
   16998:	01 00 00 00 	nop 
   1699c:	80 a6 20 30 	cmp  %i0, 0x30
   169a0:	02 80 01 71 	be  16f64 <_sysconf+0x8e0>
   169a4:	80 a2 20 31 	cmp  %o0, 0x31
   169a8:	02 80 01 6f 	be  16f64 <_sysconf+0x8e0>
   169ac:	80 a2 20 32 	cmp  %o0, 0x32
   169b0:	02 80 01 6f 	be  16f6c <_sysconf+0x8e8>
   169b4:	01 00 00 00 	nop 
   169b8:	10 80 00 de 	b  16d30 <_sysconf+0x6ac>
   169bc:	01 00 00 00 	nop 
   169c0:	80 a6 20 36 	cmp  %i0, 0x36
   169c4:	16 80 00 0a 	bge  169ec <_sysconf+0x368>
   169c8:	80 a2 20 33 	cmp  %o0, 0x33
   169cc:	02 80 01 6a 	be  16f74 <_sysconf+0x8f0>
   169d0:	80 a2 20 34 	cmp  %o0, 0x34
   169d4:	02 80 01 6a 	be  16f7c <_sysconf+0x8f8>
   169d8:	80 a2 20 35 	cmp  %o0, 0x35
   169dc:	02 80 01 6a 	be  16f84 <_sysconf+0x900>
   169e0:	11 00 00 c2 	sethi  %hi(0x30800), %o0
   169e4:	10 80 00 d3 	b  16d30 <_sysconf+0x6ac>
   169e8:	01 00 00 00 	nop 
   169ec:	80 a6 20 36 	cmp  %i0, 0x36
   169f0:	02 80 01 68 	be  16f90 <_sysconf+0x90c>
   169f4:	80 a2 20 37 	cmp  %o0, 0x37
   169f8:	02 80 01 68 	be  16f98 <_sysconf+0x914>
   169fc:	80 a2 20 38 	cmp  %o0, 0x38
   16a00:	02 80 01 68 	be  16fa0 <_sysconf+0x91c>
   16a04:	01 00 00 00 	nop 
   16a08:	10 80 00 ca 	b  16d30 <_sysconf+0x6ac>
   16a0c:	01 00 00 00 	nop 
   16a10:	80 a6 22 02 	cmp  %i0, 0x202
   16a14:	16 80 00 6c 	bge  16bc4 <_sysconf+0x540>
   16a18:	80 a2 21 f4 	cmp  %o0, 0x1f4
   16a1c:	16 80 00 39 	bge  16b00 <_sysconf+0x47c>
   16a20:	80 a2 20 40 	cmp  %o0, 0x40
   16a24:	16 80 00 1c 	bge  16a94 <_sysconf+0x410>
   16a28:	80 a2 20 3d 	cmp  %o0, 0x3d
   16a2c:	16 80 00 11 	bge  16a70 <_sysconf+0x3ec>
   16a30:	80 a2 20 3b 	cmp  %o0, 0x3b
   16a34:	16 80 00 08 	bge  16a54 <_sysconf+0x3d0>
   16a38:	80 a2 20 39 	cmp  %o0, 0x39
   16a3c:	02 80 01 5b 	be  16fa8 <_sysconf+0x924>
   16a40:	80 a2 20 3a 	cmp  %o0, 0x3a
   16a44:	02 80 01 5b 	be  16fb0 <_sysconf+0x92c>
   16a48:	01 00 00 00 	nop 
   16a4c:	10 80 00 b9 	b  16d30 <_sysconf+0x6ac>
   16a50:	01 00 00 00 	nop 
   16a54:	80 a6 20 3b 	cmp  %i0, 0x3b
   16a58:	02 80 01 58 	be  16fb8 <_sysconf+0x934>
   16a5c:	80 a2 20 3c 	cmp  %o0, 0x3c
   16a60:	02 80 01 58 	be  16fc0 <_sysconf+0x93c>
   16a64:	01 00 00 00 	nop 
   16a68:	10 80 00 b2 	b  16d30 <_sysconf+0x6ac>
   16a6c:	01 00 00 00 	nop 
   16a70:	80 a6 20 3d 	cmp  %i0, 0x3d
   16a74:	02 80 01 55 	be  16fc8 <_sysconf+0x944>
   16a78:	80 a2 20 3e 	cmp  %o0, 0x3e
   16a7c:	02 80 01 55 	be  16fd0 <_sysconf+0x94c>
   16a80:	80 a2 20 3f 	cmp  %o0, 0x3f
   16a84:	02 80 01 55 	be  16fd8 <_sysconf+0x954>
   16a88:	01 00 00 00 	nop 
   16a8c:	10 80 00 a9 	b  16d30 <_sysconf+0x6ac>
   16a90:	01 00 00 00 	nop 
   16a94:	80 a6 20 4d 	cmp  %i0, 0x4d
   16a98:	16 80 00 11 	bge  16adc <_sysconf+0x458>
   16a9c:	80 a2 20 43 	cmp  %o0, 0x43
   16aa0:	16 80 00 08 	bge  16ac0 <_sysconf+0x43c>
   16aa4:	80 a2 20 40 	cmp  %o0, 0x40
   16aa8:	02 80 01 4e 	be  16fe0 <_sysconf+0x95c>
   16aac:	80 a2 20 42 	cmp  %o0, 0x42
   16ab0:	02 80 01 26 	be  16f48 <_sysconf+0x8c4>
   16ab4:	01 00 00 00 	nop 
   16ab8:	10 80 00 9e 	b  16d30 <_sysconf+0x6ac>
   16abc:	01 00 00 00 	nop 
   16ac0:	80 a6 20 43 	cmp  %i0, 0x43
   16ac4:	02 80 00 cd 	be  16df8 <_sysconf+0x774>
   16ac8:	80 a2 20 4c 	cmp  %o0, 0x4c
   16acc:	02 80 01 55 	be  17020 <_sysconf+0x99c>
   16ad0:	01 00 00 00 	nop 
   16ad4:	10 80 00 97 	b  16d30 <_sysconf+0x6ac>
   16ad8:	01 00 00 00 	nop 
   16adc:	80 a6 20 4d 	cmp  %i0, 0x4d
   16ae0:	02 80 01 52 	be  17028 <_sysconf+0x9a4>
   16ae4:	80 a2 20 4e 	cmp  %o0, 0x4e
   16ae8:	02 80 01 40 	be  16fe8 <_sysconf+0x964>
   16aec:	80 a2 20 4f 	cmp  %o0, 0x4f
   16af0:	02 80 01 50 	be  17030 <_sysconf+0x9ac>
   16af4:	01 00 00 00 	nop 
   16af8:	10 80 00 8e 	b  16d30 <_sysconf+0x6ac>
   16afc:	01 00 00 00 	nop 
   16b00:	80 a6 21 fc 	cmp  %i0, 0x1fc
   16b04:	16 80 00 1c 	bge  16b74 <_sysconf+0x4f0>
   16b08:	80 a2 21 f9 	cmp  %o0, 0x1f9
   16b0c:	16 80 00 11 	bge  16b50 <_sysconf+0x4cc>
   16b10:	80 a2 21 f7 	cmp  %o0, 0x1f7
   16b14:	16 80 00 08 	bge  16b34 <_sysconf+0x4b0>
   16b18:	80 a2 21 f4 	cmp  %o0, 0x1f4
   16b1c:	02 80 01 05 	be  16f30 <_sysconf+0x8ac>
   16b20:	80 a2 21 f5 	cmp  %o0, 0x1f5
   16b24:	02 80 01 05 	be  16f38 <_sysconf+0x8b4>
   16b28:	01 00 00 00 	nop 
   16b2c:	10 80 00 81 	b  16d30 <_sysconf+0x6ac>
   16b30:	01 00 00 00 	nop 
   16b34:	80 a6 21 f7 	cmp  %i0, 0x1f7
   16b38:	02 80 01 63 	be  170c4 <_sysconf+0xa40>
   16b3c:	80 a2 21 f8 	cmp  %o0, 0x1f8
   16b40:	02 80 01 63 	be  170cc <_sysconf+0xa48>
   16b44:	01 00 00 00 	nop 
   16b48:	10 80 00 7a 	b  16d30 <_sysconf+0x6ac>
   16b4c:	01 00 00 00 	nop 
   16b50:	80 a6 21 f9 	cmp  %i0, 0x1f9
   16b54:	02 80 01 60 	be  170d4 <_sysconf+0xa50>
   16b58:	80 a2 21 fa 	cmp  %o0, 0x1fa
   16b5c:	02 80 01 60 	be  170dc <_sysconf+0xa58>
   16b60:	80 a2 21 fb 	cmp  %o0, 0x1fb
   16b64:	02 80 01 60 	be  170e4 <_sysconf+0xa60>
   16b68:	01 00 00 00 	nop 
   16b6c:	10 80 00 71 	b  16d30 <_sysconf+0x6ac>
   16b70:	01 00 00 00 	nop 
   16b74:	80 a6 21 ff 	cmp  %i0, 0x1ff
   16b78:	16 80 00 0a 	bge  16ba0 <_sysconf+0x51c>
   16b7c:	80 a2 21 fc 	cmp  %o0, 0x1fc
   16b80:	02 80 01 5b 	be  170ec <_sysconf+0xa68>
   16b84:	80 a2 21 fd 	cmp  %o0, 0x1fd
   16b88:	02 80 01 5b 	be  170f4 <_sysconf+0xa70>
   16b8c:	80 a2 21 fe 	cmp  %o0, 0x1fe
   16b90:	02 80 01 5b 	be  170fc <_sysconf+0xa78>
   16b94:	01 00 00 00 	nop 
   16b98:	10 80 00 66 	b  16d30 <_sysconf+0x6ac>
   16b9c:	01 00 00 00 	nop 
   16ba0:	80 a6 21 ff 	cmp  %i0, 0x1ff
   16ba4:	02 80 01 58 	be  17104 <_sysconf+0xa80>
   16ba8:	80 a2 22 00 	cmp  %o0, 0x200
   16bac:	02 80 01 58 	be  1710c <_sysconf+0xa88>
   16bb0:	80 a2 22 01 	cmp  %o0, 0x201
   16bb4:	02 80 01 58 	be  17114 <_sysconf+0xa90>
   16bb8:	01 00 00 00 	nop 
   16bbc:	10 80 00 5d 	b  16d30 <_sysconf+0x6ac>
   16bc0:	01 00 00 00 	nop 
   16bc4:	80 a6 22 43 	cmp  %i0, 0x243
   16bc8:	16 80 00 32 	bge  16c90 <_sysconf+0x60c>
   16bcc:	80 a2 22 3d 	cmp  %o0, 0x23d
   16bd0:	16 80 00 1c 	bge  16c40 <_sysconf+0x5bc>
   16bd4:	80 a2 22 3a 	cmp  %o0, 0x23a
   16bd8:	16 80 00 11 	bge  16c1c <_sysconf+0x598>
   16bdc:	80 a2 22 38 	cmp  %o0, 0x238
   16be0:	16 80 00 08 	bge  16c00 <_sysconf+0x57c>
   16be4:	80 a2 22 02 	cmp  %o0, 0x202
   16be8:	02 80 01 4d 	be  1711c <_sysconf+0xa98>
   16bec:	80 a2 22 03 	cmp  %o0, 0x203
   16bf0:	02 80 00 90 	be  16e30 <_sysconf+0x7ac>
   16bf4:	31 00 00 9e 	sethi  %hi(0x27800), %i0
   16bf8:	10 80 00 4e 	b  16d30 <_sysconf+0x6ac>
   16bfc:	01 00 00 00 	nop 
   16c00:	80 a6 22 38 	cmp  %i0, 0x238
   16c04:	02 80 01 0d 	be  17038 <_sysconf+0x9b4>
   16c08:	80 a2 22 39 	cmp  %o0, 0x239
   16c0c:	02 80 01 0d 	be  17040 <_sysconf+0x9bc>
   16c10:	11 00 00 07 	sethi  %hi(0x1c00), %o0
   16c14:	10 80 00 47 	b  16d30 <_sysconf+0x6ac>
   16c18:	01 00 00 00 	nop 
   16c1c:	80 a6 22 3a 	cmp  %i0, 0x23a
   16c20:	02 80 01 0b 	be  1704c <_sysconf+0x9c8>
   16c24:	80 a2 22 3b 	cmp  %o0, 0x23b
   16c28:	02 80 01 0b 	be  17054 <_sysconf+0x9d0>
   16c2c:	80 a2 22 3c 	cmp  %o0, 0x23c
   16c30:	02 80 01 0b 	be  1705c <_sysconf+0x9d8>
   16c34:	01 00 00 00 	nop 
   16c38:	10 80 00 3e 	b  16d30 <_sysconf+0x6ac>
   16c3c:	01 00 00 00 	nop 
   16c40:	80 a6 22 40 	cmp  %i0, 0x240
   16c44:	16 80 00 0a 	bge  16c6c <_sysconf+0x5e8>
   16c48:	80 a2 22 3d 	cmp  %o0, 0x23d
   16c4c:	02 80 01 06 	be  17064 <_sysconf+0x9e0>
   16c50:	80 a2 22 3e 	cmp  %o0, 0x23e
   16c54:	02 80 01 08 	be  17074 <_sysconf+0x9f0>
   16c58:	80 a2 22 3f 	cmp  %o0, 0x23f
   16c5c:	02 80 01 08 	be  1707c <_sysconf+0x9f8>
   16c60:	01 00 00 00 	nop 
   16c64:	10 80 00 33 	b  16d30 <_sysconf+0x6ac>
   16c68:	01 00 00 00 	nop 
   16c6c:	80 a6 22 40 	cmp  %i0, 0x240
   16c70:	02 80 01 05 	be  17084 <_sysconf+0xa00>
   16c74:	80 a2 22 41 	cmp  %o0, 0x241
   16c78:	02 80 01 05 	be  1708c <_sysconf+0xa08>
   16c7c:	80 a2 22 42 	cmp  %o0, 0x242
   16c80:	02 80 01 05 	be  17094 <_sysconf+0xa10>
   16c84:	01 00 00 00 	nop 
   16c88:	10 80 00 2a 	b  16d30 <_sysconf+0x6ac>
   16c8c:	01 00 00 00 	nop 
   16c90:	80 a6 22 ce 	cmp  %i0, 0x2ce
   16c94:	16 80 00 15 	bge  16ce8 <_sysconf+0x664>
   16c98:	80 a2 22 46 	cmp  %o0, 0x246
   16c9c:	16 80 00 0a 	bge  16cc4 <_sysconf+0x640>
   16ca0:	80 a2 22 43 	cmp  %o0, 0x243
   16ca4:	02 80 00 fe 	be  1709c <_sysconf+0xa18>
   16ca8:	80 a2 22 44 	cmp  %o0, 0x244
   16cac:	02 80 00 fe 	be  170a4 <_sysconf+0xa20>
   16cb0:	80 a2 22 45 	cmp  %o0, 0x245
   16cb4:	02 80 00 fe 	be  170ac <_sysconf+0xa28>
   16cb8:	01 00 00 00 	nop 
   16cbc:	10 80 00 1d 	b  16d30 <_sysconf+0x6ac>
   16cc0:	01 00 00 00 	nop 
   16cc4:	80 a6 22 46 	cmp  %i0, 0x246
   16cc8:	02 80 00 fb 	be  170b4 <_sysconf+0xa30>
   16ccc:	80 a2 22 47 	cmp  %o0, 0x247
   16cd0:	02 80 00 fb 	be  170bc <_sysconf+0xa38>
   16cd4:	80 a2 22 cd 	cmp  %o0, 0x2cd
   16cd8:	02 80 00 c6 	be  16ff0 <_sysconf+0x96c>
   16cdc:	01 00 00 00 	nop 
   16ce0:	10 80 00 14 	b  16d30 <_sysconf+0x6ac>
   16ce4:	01 00 00 00 	nop 
   16ce8:	80 a6 22 d1 	cmp  %i0, 0x2d1
   16cec:	16 80 00 0a 	bge  16d14 <_sysconf+0x690>
   16cf0:	80 a2 22 ce 	cmp  %o0, 0x2ce
   16cf4:	02 80 00 c1 	be  16ff8 <_sysconf+0x974>
   16cf8:	80 a2 22 cf 	cmp  %o0, 0x2cf
   16cfc:	02 80 00 c1 	be  17000 <_sysconf+0x97c>
   16d00:	80 a2 22 d0 	cmp  %o0, 0x2d0
   16d04:	02 80 00 c1 	be  17008 <_sysconf+0x984>
   16d08:	01 00 00 00 	nop 
   16d0c:	10 80 00 09 	b  16d30 <_sysconf+0x6ac>
   16d10:	01 00 00 00 	nop 
   16d14:	80 a6 22 d1 	cmp  %i0, 0x2d1
   16d18:	02 80 00 be 	be  17010 <_sysconf+0x98c>
   16d1c:	80 a2 22 d2 	cmp  %o0, 0x2d2
   16d20:	02 80 00 be 	be  17018 <_sysconf+0x994>
   16d24:	80 a2 22 d3 	cmp  %o0, 0x2d3
   16d28:	22 80 01 06 	be,a   17140 <_sysconf+0xabc>
   16d2c:	90 10 20 01 	mov  1, %o0
   16d30:	7f ff fb 2f 	call  159ec <___errno>
   16d34:	01 00 00 00 	nop 
   16d38:	92 10 20 16 	mov  0x16, %o1	! 16 <_ld_libc+0x16>
   16d3c:	d2 22 20 00 	st  %o1, [ %o0 ]
   16d40:	81 c7 e0 08 	ret 
   16d44:	91 e8 3f ff 	restore  %g0, -1, %o0
   16d48:	11 00 03 ff 	sethi  %hi(0xffc00), %o0
   16d4c:	90 02 23 00 	add  %o0, 0x300, %o0	! fff00 <_end+0xd806c>
   16d50:	81 c7 e0 08 	ret 
   16d54:	91 e8 00 08 	restore  %g0, %o0, %o0
   16d58:	31 00 00 9e 	sethi  %hi(0x27800), %i0
   16d5c:	d0 06 23 80 	ld  [ %i0 + 0x380 ], %o0	! 27b80 <_siguhandler+0xbc>
   16d60:	80 a2 20 00 	cmp  %o0, 0
   16d64:	34 80 00 f7 	bg,a   17140 <_sysconf+0xabc>
   16d68:	d0 06 23 80 	ld  [ %i0 + 0x380 ], %o0
   16d6c:	40 00 00 fe 	call  17164 <_sysconfig>
   16d70:	90 10 20 07 	mov  7, %o0
   16d74:	d0 26 23 80 	st  %o0, [ %i0 + 0x380 ]
   16d78:	d0 06 23 80 	ld  [ %i0 + 0x380 ], %o0
   16d7c:	81 c7 e0 08 	ret 
   16d80:	91 e8 00 08 	restore  %g0, %o0, %o0
   16d84:	81 c7 e0 08 	ret 
   16d88:	91 e8 20 01 	restore  %g0, 1, %o0
   16d8c:	81 c7 e0 08 	ret 
   16d90:	91 e8 20 01 	restore  %g0, 1, %o0
   16d94:	40 00 00 f4 	call  17164 <_sysconfig>
   16d98:	91 e8 20 03 	restore  %g0, 3, %o0
   16d9c:	40 00 00 f2 	call  17164 <_sysconfig>
   16da0:	91 e8 20 02 	restore  %g0, 2, %o0
   16da4:	40 00 00 f0 	call  17164 <_sysconfig>
   16da8:	91 e8 20 04 	restore  %g0, 4, %o0
   16dac:	40 00 00 ee 	call  17164 <_sysconfig>
   16db0:	91 e8 20 05 	restore  %g0, 5, %o0
   16db4:	d0 06 23 7c 	ld  [ %i0 + 0x37c ], %o0
   16db8:	80 a2 20 00 	cmp  %o0, 0
   16dbc:	34 80 00 e1 	bg,a   17140 <_sysconf+0xabc>
   16dc0:	d0 06 23 7c 	ld  [ %i0 + 0x37c ], %o0
   16dc4:	40 00 00 e8 	call  17164 <_sysconfig>
   16dc8:	90 10 20 06 	mov  6, %o0
   16dcc:	d0 26 23 7c 	st  %o0, [ %i0 + 0x37c ]
   16dd0:	d0 06 23 7c 	ld  [ %i0 + 0x37c ], %o0
   16dd4:	81 c7 e0 08 	ret 
   16dd8:	91 e8 00 08 	restore  %g0, %o0, %o0
   16ddc:	11 00 00 9e 	sethi  %hi(0x27800), %o0
   16de0:	d0 02 22 70 	ld  [ %o0 + 0x270 ], %o0	! 27a70 <__xpg4>
   16de4:	80 a2 20 00 	cmp  %o0, 0
   16de8:	32 80 00 d6 	bne,a   17140 <_sysconf+0xabc>
   16dec:	90 10 20 04 	mov  4, %o0
   16df0:	81 c7 e0 08 	ret 
   16df4:	91 e8 20 03 	restore  %g0, 3, %o0
   16df8:	81 c7 e0 08 	ret 
   16dfc:	91 e8 20 04 	restore  %g0, 4, %o0
   16e00:	81 c7 e0 08 	ret 
   16e04:	91 e8 20 08 	restore  %g0, 8, %o0
   16e08:	81 c7 e0 08 	ret 
   16e0c:	91 e8 20 08 	restore  %g0, 8, %o0
   16e10:	40 00 00 d5 	call  17164 <_sysconfig>
   16e14:	91 e8 20 04 	restore  %g0, 4, %o0
   16e18:	81 c7 e0 08 	ret 
   16e1c:	91 e8 3f ff 	restore  %g0, -1, %o0
   16e20:	40 00 00 d1 	call  17164 <_sysconfig>
   16e24:	91 e8 20 0b 	restore  %g0, 0xb, %o0
   16e28:	40 00 00 cf 	call  17164 <_sysconfig>
   16e2c:	91 e8 20 0c 	restore  %g0, 0xc, %o0
   16e30:	d0 06 23 88 	ld  [ %i0 + 0x388 ], %o0
   16e34:	80 a2 20 00 	cmp  %o0, 0
   16e38:	32 80 00 c2 	bne,a   17140 <_sysconf+0xabc>
   16e3c:	d0 06 23 88 	ld  [ %i0 + 0x388 ], %o0
   16e40:	40 00 00 c9 	call  17164 <_sysconfig>
   16e44:	90 10 20 2b 	mov  0x2b, %o0
   16e48:	d0 26 23 88 	st  %o0, [ %i0 + 0x388 ]
   16e4c:	d0 06 23 88 	ld  [ %i0 + 0x388 ], %o0
   16e50:	81 c7 e0 08 	ret 
   16e54:	91 e8 00 08 	restore  %g0, %o0, %o0
   16e58:	81 c7 e0 08 	ret 
   16e5c:	91 e8 20 01 	restore  %g0, 1, %o0
   16e60:	81 c7 e0 08 	ret 
   16e64:	91 e8 20 01 	restore  %g0, 1, %o0
   16e68:	81 c7 e0 08 	ret 
   16e6c:	91 e8 20 01 	restore  %g0, 1, %o0
   16e70:	81 c7 e0 08 	ret 
   16e74:	91 e8 20 01 	restore  %g0, 1, %o0
   16e78:	81 c7 e0 08 	ret 
   16e7c:	91 e8 20 01 	restore  %g0, 1, %o0
   16e80:	81 c7 e0 08 	ret 
   16e84:	91 e8 20 01 	restore  %g0, 1, %o0
   16e88:	81 c7 e0 08 	ret 
   16e8c:	91 e8 20 01 	restore  %g0, 1, %o0
   16e90:	81 c7 e0 08 	ret 
   16e94:	91 e8 3f ff 	restore  %g0, -1, %o0
   16e98:	81 c7 e0 08 	ret 
   16e9c:	91 e8 20 01 	restore  %g0, 1, %o0
   16ea0:	81 c7 e0 08 	ret 
   16ea4:	91 e8 20 01 	restore  %g0, 1, %o0
   16ea8:	81 c7 e0 08 	ret 
   16eac:	91 e8 20 01 	restore  %g0, 1, %o0
   16eb0:	81 c7 e0 08 	ret 
   16eb4:	91 e8 20 01 	restore  %g0, 1, %o0
   16eb8:	81 c7 e0 08 	ret 
   16ebc:	91 e8 20 01 	restore  %g0, 1, %o0
   16ec0:	81 c7 e0 08 	ret 
   16ec4:	91 e8 20 01 	restore  %g0, 1, %o0
   16ec8:	40 00 00 a7 	call  17164 <_sysconfig>
   16ecc:	91 e8 20 0d 	restore  %g0, 0xd, %o0
   16ed0:	40 00 00 a5 	call  17164 <_sysconfig>
   16ed4:	91 e8 20 0e 	restore  %g0, 0xe, %o0
   16ed8:	40 00 00 a3 	call  17164 <_sysconfig>
   16edc:	91 e8 20 0f 	restore  %g0, 0xf, %o0
   16ee0:	40 00 00 a1 	call  17164 <_sysconfig>
   16ee4:	91 e8 20 10 	restore  %g0, 0x10, %o0
   16ee8:	40 00 00 9f 	call  17164 <_sysconfig>
   16eec:	91 e8 20 11 	restore  %g0, 0x11, %o0
   16ef0:	40 00 00 9d 	call  17164 <_sysconfig>
   16ef4:	91 e8 20 12 	restore  %g0, 0x12, %o0
   16ef8:	40 00 00 9b 	call  17164 <_sysconfig>
   16efc:	91 e8 20 13 	restore  %g0, 0x13, %o0
   16f00:	40 00 00 99 	call  17164 <_sysconfig>
   16f04:	91 e8 20 14 	restore  %g0, 0x14, %o0
   16f08:	40 00 00 97 	call  17164 <_sysconfig>
   16f0c:	91 e8 20 15 	restore  %g0, 0x15, %o0
   16f10:	40 00 00 95 	call  17164 <_sysconfig>
   16f14:	91 e8 20 16 	restore  %g0, 0x16, %o0
   16f18:	40 00 00 93 	call  17164 <_sysconfig>
   16f1c:	91 e8 20 18 	restore  %g0, 0x18, %o0
   16f20:	40 00 00 91 	call  17164 <_sysconfig>
   16f24:	91 e8 20 17 	restore  %g0, 0x17, %o0
   16f28:	40 00 00 8f 	call  17164 <_sysconfig>
   16f2c:	91 e8 20 19 	restore  %g0, 0x19, %o0
   16f30:	40 00 00 8d 	call  17164 <_sysconfig>
   16f34:	91 e8 20 1a 	restore  %g0, 0x1a, %o0
   16f38:	40 00 00 8b 	call  17164 <_sysconfig>
   16f3c:	91 e8 20 1b 	restore  %g0, 0x1b, %o0
   16f40:	81 c7 e0 08 	ret 
   16f44:	91 e8 20 01 	restore  %g0, 1, %o0
   16f48:	81 c7 e0 08 	ret 
   16f4c:	91 e8 20 01 	restore  %g0, 1, %o0
   16f50:	81 c7 e0 08 	ret 
   16f54:	91 e8 20 01 	restore  %g0, 1, %o0
   16f58:	90 02 22 29 	add  %o0, 0x229, %o0
   16f5c:	81 c7 e0 08 	ret 
   16f60:	91 e8 00 08 	restore  %g0, %o0, %o0
   16f64:	81 c7 e0 08 	ret 
   16f68:	91 e8 3f ff 	restore  %g0, -1, %o0
   16f6c:	81 c7 e0 08 	ret 
   16f70:	91 e8 20 01 	restore  %g0, 1, %o0
   16f74:	81 c7 e0 08 	ret 
   16f78:	91 e8 20 01 	restore  %g0, 1, %o0
   16f7c:	81 c7 e0 08 	ret 
   16f80:	91 e8 20 01 	restore  %g0, 1, %o0
   16f84:	90 02 22 29 	add  %o0, 0x229, %o0
   16f88:	81 c7 e0 08 	ret 
   16f8c:	91 e8 00 08 	restore  %g0, %o0, %o0
   16f90:	81 c7 e0 08 	ret 
   16f94:	91 e8 20 63 	restore  %g0, 0x63, %o0
   16f98:	81 c7 e0 08 	ret 
   16f9c:	91 e8 28 00 	restore  %g0, 0x800, %o0
   16fa0:	81 c7 e0 08 	ret 
   16fa4:	91 e8 20 63 	restore  %g0, 0x63, %o0
   16fa8:	81 c7 e0 08 	ret 
   16fac:	91 e8 23 e8 	restore  %g0, 0x3e8, %o0
   16fb0:	81 c7 e0 08 	ret 
   16fb4:	91 e8 20 0a 	restore  %g0, 0xa, %o0
   16fb8:	81 c7 e0 08 	ret 
   16fbc:	91 e8 20 20 	restore  %g0, 0x20, %o0
   16fc0:	81 c7 e0 08 	ret 
   16fc4:	91 e8 28 00 	restore  %g0, 0x800, %o0
   16fc8:	81 c7 e0 08 	ret 
   16fcc:	91 e8 20 ff 	restore  %g0, 0xff, %o0
   16fd0:	81 c7 e0 08 	ret 
   16fd4:	91 e8 20 01 	restore  %g0, 1, %o0
   16fd8:	81 c7 e0 08 	ret 
   16fdc:	91 e8 20 01 	restore  %g0, 1, %o0
   16fe0:	81 c7 e0 08 	ret 
   16fe4:	91 e8 20 01 	restore  %g0, 1, %o0
   16fe8:	81 c7 e0 08 	ret 
   16fec:	91 e8 20 01 	restore  %g0, 1, %o0
   16ff0:	81 c7 e0 08 	ret 
   16ff4:	91 e8 20 01 	restore  %g0, 1, %o0
   16ff8:	81 c7 e0 08 	ret 
   16ffc:	91 e8 20 01 	restore  %g0, 1, %o0
   17000:	81 c7 e0 08 	ret 
   17004:	91 e8 20 01 	restore  %g0, 1, %o0
   17008:	81 c7 e0 08 	ret 
   1700c:	91 e8 20 01 	restore  %g0, 1, %o0
   17010:	81 c7 e0 08 	ret 
   17014:	91 e8 20 01 	restore  %g0, 1, %o0
   17018:	81 c7 e0 08 	ret 
   1701c:	91 e8 20 01 	restore  %g0, 1, %o0
   17020:	81 c7 e0 08 	ret 
   17024:	91 e8 20 20 	restore  %g0, 0x20, %o0
   17028:	81 c7 e0 08 	ret 
   1702c:	91 e8 20 10 	restore  %g0, 0x10, %o0
   17030:	81 c7 e0 08 	ret 
   17034:	91 e8 20 10 	restore  %g0, 0x10, %o0
   17038:	81 c7 e0 08 	ret 
   1703c:	91 e8 3f ff 	restore  %g0, -1, %o0
   17040:	90 02 20 80 	add  %o0, 0x80, %o0
   17044:	81 c7 e0 08 	ret 
   17048:	91 e8 00 08 	restore  %g0, %o0, %o0
   1704c:	81 c7 e0 08 	ret 
   17050:	91 e8 24 00 	restore  %g0, 0x400, %o0
   17054:	81 c7 e0 08 	ret 
   17058:	91 e8 20 09 	restore  %g0, 9, %o0
   1705c:	81 c7 e0 08 	ret 
   17060:	91 e8 3f ff 	restore  %g0, -1, %o0
   17064:	7f ff e7 b9 	call  10f48 <_thr_min_stack>
   17068:	01 00 00 00 	nop 
   1706c:	81 c7 e0 08 	ret 
   17070:	91 e8 00 08 	restore  %g0, %o0, %o0
   17074:	81 c7 e0 08 	ret 
   17078:	91 e8 3f ff 	restore  %g0, -1, %o0
   1707c:	81 c7 e0 08 	ret 
   17080:	91 e8 20 80 	restore  %g0, 0x80, %o0
   17084:	81 c7 e0 08 	ret 
   17088:	91 e8 20 01 	restore  %g0, 1, %o0
   1708c:	81 c7 e0 08 	ret 
   17090:	91 e8 20 01 	restore  %g0, 1, %o0
   17094:	81 c7 e0 08 	ret 
   17098:	91 e8 20 01 	restore  %g0, 1, %o0
   1709c:	81 c7 e0 08 	ret 
   170a0:	91 e8 20 01 	restore  %g0, 1, %o0
   170a4:	81 c7 e0 08 	ret 
   170a8:	91 e8 20 01 	restore  %g0, 1, %o0
   170ac:	81 c7 e0 08 	ret 
   170b0:	91 e8 20 01 	restore  %g0, 1, %o0
   170b4:	81 c7 e0 08 	ret 
   170b8:	91 e8 20 01 	restore  %g0, 1, %o0
   170bc:	81 c7 e0 08 	ret 
   170c0:	91 e8 20 01 	restore  %g0, 1, %o0
   170c4:	40 00 00 28 	call  17164 <_sysconfig>
   170c8:	91 e8 20 1c 	restore  %g0, 0x1c, %o0
   170cc:	40 00 00 26 	call  17164 <_sysconfig>
   170d0:	91 e8 20 1d 	restore  %g0, 0x1d, %o0
   170d4:	40 00 00 24 	call  17164 <_sysconfig>
   170d8:	91 e8 20 1e 	restore  %g0, 0x1e, %o0
   170dc:	40 00 00 22 	call  17164 <_sysconfig>
   170e0:	91 e8 20 1f 	restore  %g0, 0x1f, %o0
   170e4:	40 00 00 20 	call  17164 <_sysconfig>
   170e8:	91 e8 20 20 	restore  %g0, 0x20, %o0
   170ec:	40 00 00 1e 	call  17164 <_sysconfig>
   170f0:	91 e8 20 21 	restore  %g0, 0x21, %o0
   170f4:	40 00 00 1c 	call  17164 <_sysconfig>
   170f8:	91 e8 20 22 	restore  %g0, 0x22, %o0
   170fc:	40 00 00 1a 	call  17164 <_sysconfig>
   17100:	91 e8 20 23 	restore  %g0, 0x23, %o0
   17104:	40 00 00 18 	call  17164 <_sysconfig>
   17108:	91 e8 20 24 	restore  %g0, 0x24, %o0
   1710c:	40 00 00 16 	call  17164 <_sysconfig>
   17110:	91 e8 20 25 	restore  %g0, 0x25, %o0
   17114:	40 00 00 14 	call  17164 <_sysconfig>
   17118:	91 e8 20 26 	restore  %g0, 0x26, %o0
   1711c:	31 00 00 9e 	sethi  %hi(0x27800), %i0
   17120:	d0 06 23 84 	ld  [ %i0 + 0x384 ], %o0	! 27b84 <_siguhandler+0xc0>
   17124:	80 a2 20 00 	cmp  %o0, 0
   17128:	34 80 00 06 	bg,a   17140 <_sysconf+0xabc>
   1712c:	d0 06 23 84 	ld  [ %i0 + 0x384 ], %o0
   17130:	40 00 00 0d 	call  17164 <_sysconfig>
   17134:	90 10 20 2a 	mov  0x2a, %o0
   17138:	d0 26 23 84 	st  %o0, [ %i0 + 0x384 ]
   1713c:	d0 06 23 84 	ld  [ %i0 + 0x384 ], %o0
   17140:	81 c7 e0 08 	ret 
   17144:	91 e8 00 08 	restore  %g0, %o0, %o0

0000000000017148 <__sysconf_xpg5>:
   17148:	80 a2 20 0c 	cmp  %o0, 0xc
   1714c:	12 80 00 04 	bne  1715c <__sysconf_xpg5+0x14>
   17150:	82 10 00 0f 	mov  %o7, %g1
   17154:	81 c3 e0 08 	retl 
   17158:	90 10 21 f4 	mov  0x1f4, %o0
   1715c:	7f ff fd 4a 	call  16684 <_sysconf>
   17160:	9e 10 00 01 	mov  %g1, %o7

0000000000017164 <_sysconfig>:
   17164:	82 10 20 89 	mov  0x89, %g1
   17168:	91 d0 20 08 	ta  8
   1716c:	1a 80 00 05 	bcc  17180 <_sysconfig+0x1c>
   17170:	1b 00 00 57 	sethi  %hi(0x15c00), %o5
   17174:	9a 13 60 0c 	or  %o5, 0xc, %o5	! 15c0c <_cerror>
   17178:	81 c3 40 00 	jmp  %o5
   1717c:	01 00 00 00 	nop 
   17180:	81 c3 e0 08 	retl 
   17184:	01 00 00 00 	nop 
Disassembly of section .init:

0000000000017188 <_init>:
   17188:	9d e3 bf a0 	save  %sp, -96, %sp
   1718c:	40 00 00 03 	call  17198 <_ex_text1+0x10>
   17190:	01 00 00 00 	nop 
   17194:	00 01 00 f0 	unimp  0x100f0
   17198:	d0 03 e0 08 	ld  [ %o7 + 8 ], %o0
   1719c:	90 03 c0 08 	add  %o7, %o0, %o0
   171a0:	e0 02 3f f8 	ld  [ %o0 + -8 ], %l0
   171a4:	80 a4 00 00 	cmp  %l0, %g0
   171a8:	02 80 00 04 	be  171b8 <_ex_text1+0x30>
   171ac:	01 00 00 00 	nop 
   171b0:	9f c4 00 00 	call  %l0
   171b4:	01 00 00 00 	nop 
   171b8:	7f ff e3 f6 	call  10190 <_atexit_init>
   171bc:	01 00 00 00 	nop 
   171c0:	81 c7 e0 08 	ret 
   171c4:	81 e8 00 00 	restore 
Disassembly of section .fini:

00000000000171c8 <_fini>:
   171c8:	9d e3 bf a0 	save  %sp, -96, %sp
   171cc:	40 00 00 03 	call  171d8 <_fini+0x10>
   171d0:	01 00 00 00 	nop 
   171d4:	00 01 00 b0 	unimp  0x100b0
   171d8:	d0 03 e0 08 	ld  [ %o7 + 8 ], %o0
   171dc:	90 03 c0 08 	add  %o7, %o0, %o0
   171e0:	e0 02 3f fc 	ld  [ %o0 + -4 ], %l0
   171e4:	80 a4 00 00 	cmp  %l0, %g0
   171e8:	02 80 00 04 	be  171f8 <_fini+0x30>
   171ec:	01 00 00 00 	nop 
   171f0:	9f c4 00 00 	call  %l0
   171f4:	01 00 00 00 	nop 
   171f8:	81 c7 e0 08 	ret 
   171fc:	81 e8 00 00 	restore 
